ARM GAS  C:\Users\samsp\AppData\Local\Temp\ccExkJlC.s 			page 1


   1              		.arch armv5te
   2              		.eabi_attribute 23, 1
   3              		.eabi_attribute 24, 1
   4              		.eabi_attribute 25, 1
   5              		.eabi_attribute 26, 1
   6              		.eabi_attribute 30, 2
   7              		.eabi_attribute 34, 0
   8              		.eabi_attribute 18, 4
   9              		.file	"GalaxyShrinkingPlatform.cpp"
  10              		.text
  11              	.Ltext0:
  12              		.cfi_sections	.debug_frame
  13              		.align	2
  14              		.global	_ZN23GalaxyShrinkingPlatform16OnFloorAfterClsnER12MeshColliderP5ActorS3_
  15              		.syntax unified
  16              		.arm
  17              		.fpu softvfp
  19              	_ZN23GalaxyShrinkingPlatform16OnFloorAfterClsnER12MeshColliderP5ActorS3_:
  20              	.LVL0:
  21              	.LFB1153:
  22              		.file 1 "C:/Users/samsp/Documents/MoreObjectsMod/ASM/source/GalaxyShrinkingPlatform.cpp"
  23              		.loc 1 38 105 view -0
  24              		.cfi_startproc
  25              		@ args = 0, pretend = 0, frame = 0
  26              		@ frame_needed = 0, uses_anonymous_args = 0
  27              		@ link register save eliminated.
  28              		.loc 1 40 2 view .LVU1
  29              		.loc 1 40 68 is_stmt 0 view .LVU2
  30 0000 0130A0E3 		mov	r3, #1
  31 0004 2C33C1E5 		strb	r3, [r1, #812]
  32              		.loc 1 42 1 view .LVU3
  33 0008 1EFF2FE1 		bx	lr
  34              		.cfi_endproc
  35              	.LFE1153:
  37              		.align	2
  38              		.global	_ZN23GalaxyShrinkingPlatform5SpawnEv
  39              		.syntax unified
  40              		.arm
  41              		.fpu softvfp
  43              	_ZN23GalaxyShrinkingPlatform5SpawnEv:
  44              	.LFB1149:
  45              		.loc 1 33 1 is_stmt 1 view -0
  46              		.cfi_startproc
  47              		@ args = 0, pretend = 0, frame = 0
  48              		@ frame_needed = 0, uses_anonymous_args = 0
  49              		.loc 1 34 2 view .LVU5
  50              		.loc 1 33 1 is_stmt 0 view .LVU6
  51 000c 10402DE9 		push	{r4, lr}
  52              		.cfi_def_cfa_offset 8
  53              		.cfi_offset 4, -8
  54              		.cfi_offset 14, -4
  55              		.loc 1 34 13 view .LVU7
  56 0010 0E0DA0E3 		mov	r0, #896
  57 0014 FEFFFFEB 		bl	_ZN9ActorBasenwEj
  58              	.LVL1:
  59 0018 0040A0E1 		mov	r4, r0
  60              	.LVL2:
ARM GAS  C:\Users\samsp\AppData\Local\Temp\ccExkJlC.s 			page 2


  61              	.LBB61:
  62              	.LBI61:
  63              		.file 2 "C:/Users/samsp/Documents/MoreObjectsMod/ASM/source/GalaxyShrinkingPlatform.h"
  64              		.loc 2 6 8 is_stmt 1 view .LVU8
  65              	.LBB62:
  66 001c FEFFFFEB 		bl	_ZN8PlatformC2Ev
  67              	.LVL3:
  68              		.loc 2 6 8 is_stmt 0 view .LVU9
  69 0020 24309FE5 		ldr	r3, .L5
  70 0024 08C083E2 		add	ip, r3, #8
  71 0028 883083E2 		add	r3, r3, #136
  72 002c 070093E8 		ldm	r3, {r0, r1, r2}
  73 0030 0430A0E1 		mov	r3, r4
  74 0034 20C383E4 		str	ip, [r3], #800
  75 0038 070083E8 		stm	r3, {r0, r1, r2}
  76 003c 330E84E2 		add	r0, r4, #816
  77 0040 FEFFFFEB 		bl	_ZN5ModelC1Ev
  78              	.LVL4:
  79              		.loc 2 6 8 view .LVU10
  80              	.LBE62:
  81              	.LBE61:
  82              		.loc 1 35 1 view .LVU11
  83 0044 0400A0E1 		mov	r0, r4
  84 0048 1080BDE8 		pop	{r4, pc}
  85              	.L6:
  86              		.align	2
  87              	.L5:
  88 004c 00000000 		.word	.LANCHOR0
  89              		.cfi_endproc
  90              	.LFE1149:
  92              		.align	2
  93              		.global	_ZN23GalaxyShrinkingPlatform16CleanupResourcesEv
  94              		.syntax unified
  95              		.arm
  96              		.fpu softvfp
  98              	_ZN23GalaxyShrinkingPlatform16CleanupResourcesEv:
  99              	.LVL5:
 100              	.LFB1158:
 101              		.loc 1 111 1 is_stmt 1 view -0
 102              		.cfi_startproc
 103              		@ args = 0, pretend = 0, frame = 0
 104              		@ frame_needed = 0, uses_anonymous_args = 0
 105              		.loc 1 112 2 view .LVU13
 106              		.loc 1 111 1 is_stmt 0 view .LVU14
 107 0050 10402DE9 		push	{r4, lr}
 108              		.cfi_def_cfa_offset 8
 109              		.cfi_offset 4, -8
 110              		.cfi_offset 14, -4
 111              		.loc 1 113 19 view .LVU15
 112 0054 24409FE5 		ldr	r4, .L9
 113              		.loc 1 112 14 view .LVU16
 114 0058 490F80E2 		add	r0, r0, #292
 115              	.LVL6:
 116              		.loc 1 112 14 view .LVU17
 117 005c FEFFFFEB 		bl	_ZN12MeshCollider7DisableEv
 118              	.LVL7:
 119              		.loc 1 113 2 is_stmt 1 view .LVU18
ARM GAS  C:\Users\samsp\AppData\Local\Temp\ccExkJlC.s 			page 3


 120              		.loc 1 113 19 is_stmt 0 view .LVU19
 121 0060 0400A0E1 		mov	r0, r4
 122 0064 FEFFFFEB 		bl	_ZN13SharedFilePtr7ReleaseEv
 123              	.LVL8:
 124              		.loc 1 114 2 is_stmt 1 view .LVU20
 125              		.loc 1 114 18 is_stmt 0 view .LVU21
 126 0068 080084E2 		add	r0, r4, #8
 127 006c FEFFFFEB 		bl	_ZN13SharedFilePtr7ReleaseEv
 128              	.LVL9:
 129              		.loc 1 115 2 is_stmt 1 view .LVU22
 130              		.loc 1 115 24 is_stmt 0 view .LVU23
 131 0070 100084E2 		add	r0, r4, #16
 132 0074 FEFFFFEB 		bl	_ZN13SharedFilePtr7ReleaseEv
 133              	.LVL10:
 134              		.loc 1 116 2 is_stmt 1 view .LVU24
 135              		.loc 1 117 1 is_stmt 0 view .LVU25
 136 0078 0100A0E3 		mov	r0, #1
 137 007c 1080BDE8 		pop	{r4, pc}
 138              	.L10:
 139              		.align	2
 140              	.L9:
 141 0080 00000000 		.word	.LANCHOR1
 142              		.cfi_endproc
 143              	.LFE1158:
 145              		.align	2
 146              		.global	_ZN23GalaxyShrinkingPlatform6ShrinkEv
 147              		.syntax unified
 148              		.arm
 149              		.fpu softvfp
 151              	_ZN23GalaxyShrinkingPlatform6ShrinkEv:
 152              	.LVL11:
 153              	.LFB1154:
 154              		.loc 1 45 40 is_stmt 1 view -0
 155              		.cfi_startproc
 156              		@ args = 0, pretend = 0, frame = 0
 157              		@ frame_needed = 0, uses_anonymous_args = 0
 158              		.loc 1 47 2 view .LVU27
 159              	.LBB95:
 160              	.LBB96:
 161              		.file 3 "C:/Users/samsp/Documents/MoreObjectsMod/ASM/source/SM64DS_Common.h"
 162              		.loc 3 55 68 is_stmt 0 view .LVU28
 163 0084 203390E5 		ldr	r3, [r0, #800]
 164              	.LBE96:
 165              	.LBE95:
 166              		.loc 1 45 40 view .LVU29
 167 0088 10402DE9 		push	{r4, lr}
 168              		.cfi_def_cfa_offset 8
 169              		.cfi_offset 4, -8
 170              		.cfi_offset 14, -4
 171              		.loc 1 47 2 view .LVU30
 172 008c 010A53E3 		cmp	r3, #4096
 173              		.loc 1 45 40 view .LVU31
 174 0090 0040A0E1 		mov	r4, r0
 175              	.LVL12:
 176              	.LBB97:
 177              	.LBI95:
 178              		.loc 3 55 28 is_stmt 1 view .LVU32
ARM GAS  C:\Users\samsp\AppData\Local\Temp\ccExkJlC.s 			page 4


 179              		.loc 3 55 28 is_stmt 0 view .LVU33
 180              	.LBE97:
 181              		.loc 1 47 2 view .LVU34
 182 0094 0D00000A 		beq	.L17
 183              	.LVL13:
 184              	.L12:
 185              		.loc 1 51 2 is_stmt 1 view .LVU35
 186              	.LBB98:
 187              	.LBI98:
 188              		.loc 3 59 26 view .LVU36
 189              		.loc 3 59 26 is_stmt 0 view .LVU37
 190              	.LBE98:
 191              		.loc 1 51 2 view .LVU38
 192 0098 000053E3 		cmp	r3, #0
 193 009c 050000DA 		ble	.L13
 194              		.loc 1 53 3 is_stmt 1 view .LVU39
 195              	.LVL14:
 196              	.LBB100:
 197              	.LBI100:
 198              		.loc 3 42 28 view .LVU40
 199              	.LBB101:
 200              	.LBB102:
 201              	.LBI102:
 202              		.loc 3 35 28 view .LVU41
 203              		.loc 3 35 28 is_stmt 0 view .LVU42
 204              	.LBE102:
 205              	.LBE101:
 206              	.LBE100:
 207              	.LBB104:
 208              	.LBB105:
 209              		.loc 3 42 68 view .LVU43
 210 00a0 282394E5 		ldr	r2, [r4, #808]
 211              	.LBE105:
 212              	.LBE104:
 213              	.LBB109:
 214              	.LBB103:
 215 00a4 643043E2 		sub	r3, r3, #100
 216              	.LBE103:
 217              	.LBE109:
 218              	.LBB110:
 219              	.LBB107:
 220 00a8 642042E2 		sub	r2, r2, #100
 221              	.LBE107:
 222              	.LBE110:
 223              		.loc 1 53 19 view .LVU44
 224 00ac 203384E5 		str	r3, [r4, #800]
 225              		.loc 1 54 3 is_stmt 1 view .LVU45
 226              	.LVL15:
 227              	.LBB111:
 228              	.LBI104:
 229              		.loc 3 42 28 view .LVU46
 230              	.LBB108:
 231              	.LBB106:
 232              	.LBI106:
 233              		.loc 3 35 28 view .LVU47
 234              		.loc 3 35 28 is_stmt 0 view .LVU48
 235              	.LBE106:
ARM GAS  C:\Users\samsp\AppData\Local\Temp\ccExkJlC.s 			page 5


 236              	.LBE108:
 237              	.LBE111:
 238              		.loc 1 54 19 view .LVU49
 239 00b0 282384E5 		str	r2, [r4, #808]
 240              		.loc 1 64 1 view .LVU50
 241 00b4 1080BDE8 		pop	{r4, pc}
 242              	.L13:
 243              	.LVL16:
 244              	.LBB112:
 245              	.LBI112:
 246              		.loc 1 45 6 is_stmt 1 view .LVU51
 247              	.LBB113:
 248              		.loc 1 58 3 view .LVU52
 249              		.loc 1 58 9 is_stmt 0 view .LVU53
 250 00b8 0030A0E3 		mov	r3, #0
 251              		.loc 1 60 15 view .LVU54
 252 00bc 490F84E2 		add	r0, r4, #292
 253              		.loc 1 58 9 view .LVU55
 254 00c0 203384E5 		str	r3, [r4, #800]
 255              		.loc 1 59 3 is_stmt 1 view .LVU56
 256              		.loc 1 59 9 is_stmt 0 view .LVU57
 257 00c4 283384E5 		str	r3, [r4, #808]
 258              		.loc 1 60 3 is_stmt 1 view .LVU58
 259              	.LBE113:
 260              	.LBE112:
 261              		.loc 1 64 1 is_stmt 0 view .LVU59
 262 00c8 1040BDE8 		pop	{r4, lr}
 263              		.cfi_remember_state
 264              		.cfi_restore 14
 265              		.cfi_restore 4
 266              		.cfi_def_cfa_offset 0
 267              	.LVL17:
 268              	.LBB115:
 269              	.LBB114:
 270              		.loc 1 60 15 view .LVU60
 271 00cc FEFFFFEA 		b	_ZN12MeshCollider7DisableEv
 272              	.LVL18:
 273              	.L17:
 274              		.cfi_restore_state
 275              		.loc 1 60 15 view .LVU61
 276              	.LBE114:
 277              	.LBE115:
 278              		.loc 1 48 3 is_stmt 1 view .LVU62
 279              		.loc 1 48 14 is_stmt 0 view .LVU63
 280 00d0 0110A0E3 		mov	r1, #1
 281 00d4 0400A0E3 		mov	r0, #4
 282              	.LVL19:
 283              		.loc 1 48 14 view .LVU64
 284 00d8 742084E2 		add	r2, r4, #116
 285 00dc FEFFFFEB 		bl	_ZN5Sound4PlayEjjRK7Vector3
 286              	.LVL20:
 287              	.LBB116:
 288              	.LBB99:
 289              		.loc 3 59 66 view .LVU65
 290 00e0 203394E5 		ldr	r3, [r4, #800]
 291              	.LBE99:
 292              	.LBE116:
ARM GAS  C:\Users\samsp\AppData\Local\Temp\ccExkJlC.s 			page 6


 293 00e4 EBFFFFEA 		b	.L12
 294              		.cfi_endproc
 295              	.LFE1154:
 297              		.align	2
 298              		.global	_ZN23GalaxyShrinkingPlatform8UnShrinkEv
 299              		.syntax unified
 300              		.arm
 301              		.fpu softvfp
 303              	_ZN23GalaxyShrinkingPlatform8UnShrinkEv:
 304              	.LVL21:
 305              	.LFB1155:
 306              		.loc 1 66 42 is_stmt 1 view -0
 307              		.cfi_startproc
 308              		@ args = 0, pretend = 0, frame = 0
 309              		@ frame_needed = 0, uses_anonymous_args = 0
 310              		.loc 1 68 2 view .LVU67
 311              		.loc 1 68 8 is_stmt 0 view .LVU68
 312 00e8 013AA0E3 		mov	r3, #4096
 313              		.loc 1 66 42 view .LVU69
 314 00ec 10402DE9 		push	{r4, lr}
 315              		.cfi_def_cfa_offset 8
 316              		.cfi_offset 4, -8
 317              		.cfi_offset 14, -4
 318              		.loc 1 70 13 view .LVU70
 319 00f0 0010A0E1 		mov	r1, r0
 320              		.loc 1 68 8 view .LVU71
 321 00f4 203380E5 		str	r3, [r0, #800]
 322              		.loc 1 69 2 is_stmt 1 view .LVU72
 323              		.loc 1 69 8 is_stmt 0 view .LVU73
 324 00f8 283380E5 		str	r3, [r0, #808]
 325              		.loc 1 70 2 is_stmt 1 view .LVU74
 326              		.loc 1 66 42 is_stmt 0 view .LVU75
 327 00fc 0040A0E1 		mov	r4, r0
 328              		.loc 1 70 13 view .LVU76
 329 0100 490F80E2 		add	r0, r0, #292
 330              	.LVL22:
 331              		.loc 1 70 13 view .LVU77
 332 0104 FEFFFFEB 		bl	_ZN12MeshCollider6EnableEP5Actor
 333              	.LVL23:
 334              		.loc 1 71 2 is_stmt 1 view .LVU78
 335              		.loc 1 71 18 is_stmt 0 view .LVU79
 336 0108 0030A0E3 		mov	r3, #0
 337 010c 2C33C4E5 		strb	r3, [r4, #812]
 338              		.loc 1 73 1 view .LVU80
 339 0110 1080BDE8 		pop	{r4, pc}
 340              		.cfi_endproc
 341              	.LFE1155:
 343              		.align	2
 344              		.global	_ZN23GalaxyShrinkingPlatform20UpdateModelTransformEv
 345              		.syntax unified
 346              		.arm
 347              		.fpu softvfp
 349              	_ZN23GalaxyShrinkingPlatform20UpdateModelTransformEv:
 350              	.LVL24:
 351              	.LFB1156:
 352              		.loc 1 76 1 is_stmt 1 view -0
 353              		.cfi_startproc
ARM GAS  C:\Users\samsp\AppData\Local\Temp\ccExkJlC.s 			page 7


 354              		@ args = 0, pretend = 0, frame = 0
 355              		@ frame_needed = 0, uses_anonymous_args = 0
 356              		.loc 1 77 2 view .LVU82
 357              		.loc 1 76 1 is_stmt 0 view .LVU83
 358 0114 10402DE9 		push	{r4, lr}
 359              		.cfi_def_cfa_offset 8
 360              		.cfi_offset 4, -8
 361              		.cfi_offset 14, -4
 362              		.loc 1 76 1 view .LVU84
 363 0118 0040A0E1 		mov	r4, r0
 364              	.LVL25:
 365              	.LBB117:
 366              	.LBI117:
 367              		.loc 3 217 14 is_stmt 1 view .LVU85
 368              	.LBB118:
 369              		.loc 3 217 45 view .LVU86
 370              		.loc 3 217 68 is_stmt 0 view .LVU87
 371 011c FE18D0E1 		ldrsh	r1, [r0, #142]
 372 0120 F00080E2 		add	r0, r0, #240
 373              	.LVL26:
 374              		.loc 3 217 68 view .LVU88
 375 0124 FEFFFFEB 		bl	Matrix4x3_FromRotationY
 376              	.LVL27:
 377              		.loc 3 217 68 view .LVU89
 378              	.LBE118:
 379              	.LBE117:
 380              		.loc 1 78 2 is_stmt 1 view .LVU90
 381              	.LBB119:
 382              	.LBI119:
 383              		.loc 3 54 28 view .LVU91
 384              	.LBB120:
 385              	.LBB121:
 386              	.LBI121:
 387              		.loc 3 35 28 view .LVU92
 388              		.loc 3 35 28 is_stmt 0 view .LVU93
 389              	.LBE121:
 390              	.LBE120:
 391              	.LBE119:
 392              	.LBB123:
 393              	.LBB124:
 394              		.loc 3 54 68 view .LVU94
 395 0128 5C0084E2 		add	r0, r4, #92
 396 012c 0D0090E8 		ldm	r0, {r0, r2, r3}
 397              	.LBE124:
 398              	.LBE123:
 399              	.LBB128:
 400              	.LBB129:
 401 0130 C221A0E1 		asr	r2, r2, #3
 402              	.LBE129:
 403              	.LBE128:
 404              	.LBB132:
 405              	.LBB126:
 406 0134 C331A0E1 		asr	r3, r3, #3
 407              	.LBE126:
 408              	.LBE132:
 409              	.LBB133:
 410              	.LBB122:
ARM GAS  C:\Users\samsp\AppData\Local\Temp\ccExkJlC.s 			page 8


 411 0138 C001A0E1 		asr	r0, r0, #3
 412              	.LBE122:
 413              	.LBE133:
 414              	.LBB134:
 415              	.LBB135:
 416              		.loc 3 217 68 view .LVU95
 417 013c FE18D4E1 		ldrsh	r1, [r4, #142]
 418              	.LBE135:
 419              	.LBE134:
 420              		.loc 1 78 31 view .LVU96
 421 0140 140184E5 		str	r0, [r4, #276]
 422              		.loc 1 79 2 is_stmt 1 view .LVU97
 423              	.LVL28:
 424              	.LBB137:
 425              	.LBI128:
 426              		.loc 3 54 28 view .LVU98
 427              	.LBB131:
 428              	.LBB130:
 429              	.LBI130:
 430              		.loc 3 35 28 view .LVU99
 431              		.loc 3 35 28 is_stmt 0 view .LVU100
 432              	.LBE130:
 433              	.LBE131:
 434              	.LBE137:
 435              		.loc 1 79 31 view .LVU101
 436 0144 182184E5 		str	r2, [r4, #280]
 437              		.loc 1 80 2 is_stmt 1 view .LVU102
 438              	.LVL29:
 439              	.LBB138:
 440              	.LBI123:
 441              		.loc 3 54 28 view .LVU103
 442              	.LBB127:
 443              	.LBB125:
 444              	.LBI125:
 445              		.loc 3 35 28 view .LVU104
 446              		.loc 3 35 28 is_stmt 0 view .LVU105
 447              	.LBE125:
 448              	.LBE127:
 449              	.LBE138:
 450              		.loc 1 80 31 view .LVU106
 451 0148 1C3184E5 		str	r3, [r4, #284]
 452              		.loc 1 82 2 is_stmt 1 view .LVU107
 453              	.LVL30:
 454              	.LBB139:
 455              	.LBI134:
 456              		.loc 3 217 14 view .LVU108
 457              	.LBB136:
 458              		.loc 3 217 45 view .LVU109
 459              		.loc 3 217 68 is_stmt 0 view .LVU110
 460 014c D30F84E2 		add	r0, r4, #844
 461              	.LVL31:
 462              		.loc 3 217 68 view .LVU111
 463 0150 FEFFFFEB 		bl	Matrix4x3_FromRotationY
 464              	.LVL32:
 465              		.loc 3 217 68 view .LVU112
 466              	.LBE136:
 467              	.LBE139:
ARM GAS  C:\Users\samsp\AppData\Local\Temp\ccExkJlC.s 			page 9


 468              		.loc 1 83 2 is_stmt 1 view .LVU113
 469              	.LBB140:
 470              	.LBI140:
 471              		.loc 3 54 28 view .LVU114
 472              	.LBB141:
 473              	.LBB142:
 474              	.LBI142:
 475              		.loc 3 35 28 view .LVU115
 476              		.loc 3 35 28 is_stmt 0 view .LVU116
 477              	.LBE142:
 478              	.LBE141:
 479              	.LBE140:
 480              	.LBB144:
 481              	.LBB145:
 482              		.loc 3 54 68 view .LVU117
 483 0154 5C1084E2 		add	r1, r4, #92
 484 0158 0E0091E8 		ldm	r1, {r1, r2, r3}
 485              	.LBE145:
 486              	.LBE144:
 487              	.LBB149:
 488              	.LBB143:
 489 015c C111A0E1 		asr	r1, r1, #3
 490              	.LBE143:
 491              	.LBE149:
 492              	.LBB150:
 493              	.LBB151:
 494 0160 C221A0E1 		asr	r2, r2, #3
 495              	.LBE151:
 496              	.LBE150:
 497              	.LBB154:
 498              	.LBB147:
 499 0164 C331A0E1 		asr	r3, r3, #3
 500              	.LBE147:
 501              	.LBE154:
 502              		.loc 1 83 36 view .LVU118
 503 0168 701384E5 		str	r1, [r4, #880]
 504              		.loc 1 84 2 is_stmt 1 view .LVU119
 505              	.LVL33:
 506              	.LBB155:
 507              	.LBI150:
 508              		.loc 3 54 28 view .LVU120
 509              	.LBB153:
 510              	.LBB152:
 511              	.LBI152:
 512              		.loc 3 35 28 view .LVU121
 513              		.loc 3 35 28 is_stmt 0 view .LVU122
 514              	.LBE152:
 515              	.LBE153:
 516              	.LBE155:
 517              		.loc 1 84 36 view .LVU123
 518 016c 742384E5 		str	r2, [r4, #884]
 519              		.loc 1 85 2 is_stmt 1 view .LVU124
 520              	.LVL34:
 521              	.LBB156:
 522              	.LBI144:
 523              		.loc 3 54 28 view .LVU125
 524              	.LBB148:
ARM GAS  C:\Users\samsp\AppData\Local\Temp\ccExkJlC.s 			page 10


 525              	.LBB146:
 526              	.LBI146:
 527              		.loc 3 35 28 view .LVU126
 528              		.loc 3 35 28 is_stmt 0 view .LVU127
 529              	.LBE146:
 530              	.LBE148:
 531              	.LBE156:
 532              		.loc 1 85 36 view .LVU128
 533 0170 783384E5 		str	r3, [r4, #888]
 534              		.loc 1 86 1 view .LVU129
 535 0174 1080BDE8 		pop	{r4, pc}
 536              		.cfi_endproc
 537              	.LFE1156:
 539              		.align	2
 540              		.global	_ZN23GalaxyShrinkingPlatform8BehaviorEv
 541              		.syntax unified
 542              		.arm
 543              		.fpu softvfp
 545              	_ZN23GalaxyShrinkingPlatform8BehaviorEv:
 546              	.LVL35:
 547              	.LFB1159:
 548              		.loc 1 120 1 is_stmt 1 view -0
 549              		.cfi_startproc
 550              		@ args = 0, pretend = 0, frame = 0
 551              		@ frame_needed = 0, uses_anonymous_args = 0
 552              		.loc 1 121 2 view .LVU131
 553              		.loc 1 120 1 is_stmt 0 view .LVU132
 554 0178 70402DE9 		push	{r4, r5, r6, lr}
 555              		.cfi_def_cfa_offset 16
 556              		.cfi_offset 4, -16
 557              		.cfi_offset 5, -12
 558              		.cfi_offset 6, -8
 559              		.cfi_offset 14, -4
 560              		.loc 1 120 1 view .LVU133
 561 017c 0040A0E1 		mov	r4, r0
 562              		.loc 1 121 22 view .LVU134
 563 0180 FEFFFFEB 		bl	_ZN23GalaxyShrinkingPlatform20UpdateModelTransformEv
 564              	.LVL36:
 565              		.loc 1 122 2 is_stmt 1 view .LVU135
 566              		.loc 1 122 18 is_stmt 0 view .LVU136
 567 0184 0020A0E3 		mov	r2, #0
 568 0188 0400A0E1 		mov	r0, r4
 569 018c 0210A0E1 		mov	r1, r2
 570 0190 FEFFFFEB 		bl	_ZN8Platform13IsClsnInRangeE5Fix12IiES1_
 571              	.LVL37:
 572              		.loc 1 122 2 view .LVU137
 573 0194 005050E2 		subs	r5, r0, #0
 574 0198 0E00001A 		bne	.L33
 575              		.loc 1 139 3 is_stmt 1 view .LVU138
 576 019c 2C33D4E5 		ldrb	r3, [r4, #812]	@ zero_extendqisi2
 577 01a0 000053E3 		cmp	r3, #0
 578 01a4 0300001A 		bne	.L34
 579              	.L25:
 580              		.loc 1 142 2 view .LVU139
 581              		.loc 1 142 23 is_stmt 0 view .LVU140
 582 01a8 0400A0E1 		mov	r0, r4
 583 01ac FEFFFFEB 		bl	_ZN8Platform21UpdateModelPosAndRotYEv
ARM GAS  C:\Users\samsp\AppData\Local\Temp\ccExkJlC.s 			page 11


 584              	.LVL38:
 585              		.loc 1 144 2 is_stmt 1 view .LVU141
 586              		.loc 1 145 1 is_stmt 0 view .LVU142
 587 01b0 0100A0E3 		mov	r0, #1
 588 01b4 7080BDE8 		pop	{r4, r5, r6, pc}
 589              	.L34:
 590              		.loc 1 139 26 is_stmt 1 view .LVU143
 591              	.LVL39:
 592              	.LBB183:
 593              	.LBI183:
 594              		.loc 1 66 6 view .LVU144
 595              	.LBB184:
 596              		.loc 1 68 2 view .LVU145
 597              		.loc 1 68 8 is_stmt 0 view .LVU146
 598 01b8 013AA0E3 		mov	r3, #4096
 599              		.loc 1 70 13 view .LVU147
 600 01bc 0410A0E1 		mov	r1, r4
 601 01c0 490F84E2 		add	r0, r4, #292
 602              		.loc 1 68 8 view .LVU148
 603 01c4 203384E5 		str	r3, [r4, #800]
 604              		.loc 1 69 2 is_stmt 1 view .LVU149
 605              		.loc 1 69 8 is_stmt 0 view .LVU150
 606 01c8 283384E5 		str	r3, [r4, #808]
 607              		.loc 1 70 2 is_stmt 1 view .LVU151
 608              		.loc 1 70 13 is_stmt 0 view .LVU152
 609 01cc FEFFFFEB 		bl	_ZN12MeshCollider6EnableEP5Actor
 610              	.LVL40:
 611              		.loc 1 71 2 is_stmt 1 view .LVU153
 612              		.loc 1 71 18 is_stmt 0 view .LVU154
 613 01d0 2C53C4E5 		strb	r5, [r4, #812]
 614              		.loc 1 73 1 view .LVU155
 615 01d4 F3FFFFEA 		b	.L25
 616              	.LVL41:
 617              	.L33:
 618              		.loc 1 73 1 view .LVU156
 619              	.LBE184:
 620              	.LBE183:
 621              		.loc 1 125 3 is_stmt 1 view .LVU157
 622              		.loc 1 125 22 is_stmt 0 view .LVU158
 623 01d8 0400A0E1 		mov	r0, r4
 624 01dc FEFFFFEB 		bl	_ZN8Platform19UpdateClsnPosAndRotEv
 625              	.LVL42:
 626              		.loc 1 127 3 is_stmt 1 view .LVU159
 627 01e0 2C33D4E5 		ldrb	r3, [r4, #812]	@ zero_extendqisi2
 628 01e4 000053E3 		cmp	r3, #0
 629 01e8 EEFFFF0A 		beq	.L25
 630              		.loc 1 128 4 view .LVU160
 631              	.LVL43:
 632              	.LBB185:
 633              	.LBI185:
 634              		.loc 1 45 6 view .LVU161
 635              	.LBB186:
 636              		.loc 1 47 2 view .LVU162
 637              	.LBB187:
 638              	.LBI187:
 639              		.loc 3 55 28 view .LVU163
 640              	.LBB188:
ARM GAS  C:\Users\samsp\AppData\Local\Temp\ccExkJlC.s 			page 12


 641              		.loc 3 55 68 is_stmt 0 view .LVU164
 642 01ec 203394E5 		ldr	r3, [r4, #800]
 643              	.LVL44:
 644              		.loc 3 55 68 view .LVU165
 645              	.LBE188:
 646              	.LBE187:
 647              		.loc 1 47 2 view .LVU166
 648 01f0 010A53E3 		cmp	r3, #4096
 649 01f4 0D00000A 		beq	.L35
 650              	.L26:
 651              		.loc 1 51 2 is_stmt 1 view .LVU167
 652              	.LVL45:
 653              	.LBB189:
 654              	.LBI189:
 655              		.loc 3 59 26 view .LVU168
 656              		.loc 3 59 26 is_stmt 0 view .LVU169
 657              	.LBE189:
 658              		.loc 1 51 2 view .LVU170
 659 01f8 000053E3 		cmp	r3, #0
 660 01fc 050000DA 		ble	.L27
 661              		.loc 1 53 3 is_stmt 1 view .LVU171
 662              	.LVL46:
 663              	.LBB191:
 664              	.LBI191:
 665              		.loc 3 42 28 view .LVU172
 666              	.LBB192:
 667              	.LBB193:
 668              	.LBI193:
 669              		.loc 3 35 28 view .LVU173
 670              		.loc 3 35 28 is_stmt 0 view .LVU174
 671              	.LBE193:
 672              	.LBE192:
 673              	.LBE191:
 674              	.LBB195:
 675              	.LBB196:
 676              		.loc 3 42 68 view .LVU175
 677 0200 282394E5 		ldr	r2, [r4, #808]
 678              	.LBE196:
 679              	.LBE195:
 680              	.LBB200:
 681              	.LBB194:
 682 0204 643043E2 		sub	r3, r3, #100
 683              	.LBE194:
 684              	.LBE200:
 685              	.LBB201:
 686              	.LBB198:
 687 0208 642042E2 		sub	r2, r2, #100
 688              	.LBE198:
 689              	.LBE201:
 690              		.loc 1 53 19 view .LVU176
 691 020c 203384E5 		str	r3, [r4, #800]
 692              		.loc 1 54 3 is_stmt 1 view .LVU177
 693              	.LVL47:
 694              	.LBB202:
 695              	.LBI195:
 696              		.loc 3 42 28 view .LVU178
 697              	.LBB199:
ARM GAS  C:\Users\samsp\AppData\Local\Temp\ccExkJlC.s 			page 13


 698              	.LBB197:
 699              	.LBI197:
 700              		.loc 3 35 28 view .LVU179
 701              		.loc 3 35 28 is_stmt 0 view .LVU180
 702              	.LBE197:
 703              	.LBE199:
 704              	.LBE202:
 705              		.loc 1 54 19 view .LVU181
 706 0210 282384E5 		str	r2, [r4, #808]
 707 0214 E3FFFFEA 		b	.L25
 708              	.L27:
 709              	.LVL48:
 710              	.LBB203:
 711              	.LBI203:
 712              		.loc 1 45 6 is_stmt 1 view .LVU182
 713              	.LBB204:
 714              		.loc 1 58 3 view .LVU183
 715              		.loc 1 58 9 is_stmt 0 view .LVU184
 716 0218 0030A0E3 		mov	r3, #0
 717              		.loc 1 60 15 view .LVU185
 718 021c 490F84E2 		add	r0, r4, #292
 719              		.loc 1 58 9 view .LVU186
 720 0220 203384E5 		str	r3, [r4, #800]
 721              		.loc 1 59 3 is_stmt 1 view .LVU187
 722              		.loc 1 59 9 is_stmt 0 view .LVU188
 723 0224 283384E5 		str	r3, [r4, #808]
 724              		.loc 1 60 3 is_stmt 1 view .LVU189
 725              		.loc 1 60 15 is_stmt 0 view .LVU190
 726 0228 FEFFFFEB 		bl	_ZN12MeshCollider7DisableEv
 727              	.LVL49:
 728              		.loc 1 64 1 view .LVU191
 729 022c DDFFFFEA 		b	.L25
 730              	.LVL50:
 731              	.L35:
 732              		.loc 1 64 1 view .LVU192
 733              	.LBE204:
 734              	.LBE203:
 735              		.loc 1 48 3 is_stmt 1 view .LVU193
 736              		.loc 1 48 14 is_stmt 0 view .LVU194
 737 0230 0110A0E3 		mov	r1, #1
 738 0234 0400A0E3 		mov	r0, #4
 739 0238 742084E2 		add	r2, r4, #116
 740 023c FEFFFFEB 		bl	_ZN5Sound4PlayEjjRK7Vector3
 741              	.LVL51:
 742              	.LBB205:
 743              	.LBB190:
 744              		.loc 3 59 66 view .LVU195
 745 0240 203394E5 		ldr	r3, [r4, #800]
 746              	.LBE190:
 747              	.LBE205:
 748 0244 EBFFFFEA 		b	.L26
 749              	.LBE186:
 750              	.LBE185:
 751              		.cfi_endproc
 752              	.LFE1159:
 754              		.align	2
 755              		.global	_ZN23GalaxyShrinkingPlatform13InitResourcesEv
ARM GAS  C:\Users\samsp\AppData\Local\Temp\ccExkJlC.s 			page 14


 756              		.syntax unified
 757              		.arm
 758              		.fpu softvfp
 760              	_ZN23GalaxyShrinkingPlatform13InitResourcesEv:
 761              	.LVL52:
 762              	.LFB1157:
 763              		.loc 1 90 1 is_stmt 1 view -0
 764              		.cfi_startproc
 765              		@ args = 0, pretend = 0, frame = 0
 766              		@ frame_needed = 0, uses_anonymous_args = 0
 767              		.loc 1 92 2 view .LVU197
 768              		.loc 1 90 1 is_stmt 0 view .LVU198
 769 0248 30402DE9 		push	{r4, r5, lr}
 770              		.cfi_def_cfa_offset 12
 771              		.cfi_offset 4, -12
 772              		.cfi_offset 5, -8
 773              		.cfi_offset 14, -4
 774 024c 0040A0E1 		mov	r4, r0
 775              		.loc 1 92 17 view .LVU199
 776 0250 90509FE5 		ldr	r5, .L38
 777              		.loc 1 90 1 view .LVU200
 778 0254 0CD04DE2 		sub	sp, sp, #12
 779              		.cfi_def_cfa_offset 24
 780              		.loc 1 92 17 view .LVU201
 781 0258 0500A0E1 		mov	r0, r5
 782              	.LVL53:
 783              		.loc 1 92 17 view .LVU202
 784 025c FEFFFFEB 		bl	_ZN5Model8LoadFileER13SharedFilePtr
 785              	.LVL54:
 786              		.loc 1 93 2 is_stmt 1 view .LVU203
 787              		.loc 1 93 15 is_stmt 0 view .LVU204
 788 0260 041095E5 		ldr	r1, [r5, #4]
 789 0264 0030E0E3 		mvn	r3, #0
 790 0268 0120A0E3 		mov	r2, #1
 791 026c D40084E2 		add	r0, r4, #212
 792 0270 FEFFFFEB 		bl	_ZN5Model7SetFileEPcii
 793              	.LVL55:
 794              		.loc 1 95 2 is_stmt 1 view .LVU205
 795              		.loc 1 95 17 is_stmt 0 view .LVU206
 796 0274 100085E2 		add	r0, r5, #16
 797 0278 FEFFFFEB 		bl	_ZN5Model8LoadFileER13SharedFilePtr
 798              	.LVL56:
 799              		.loc 1 96 2 is_stmt 1 view .LVU207
 800              		.loc 1 96 20 is_stmt 0 view .LVU208
 801 027c 141095E5 		ldr	r1, [r5, #20]
 802 0280 0030E0E3 		mvn	r3, #0
 803 0284 0120A0E3 		mov	r2, #1
 804 0288 330E84E2 		add	r0, r4, #816
 805 028c FEFFFFEB 		bl	_ZN5Model7SetFileEPcii
 806              	.LVL57:
 807              		.loc 1 98 2 is_stmt 1 view .LVU209
 808              		.loc 1 98 44 is_stmt 0 view .LVU210
 809 0290 080085E2 		add	r0, r5, #8
 810 0294 FEFFFFEB 		bl	_ZN18MovingMeshCollider8LoadFileER13SharedFilePtr
 811              	.LVL58:
 812              		.loc 1 99 14 view .LVU211
 813 0298 FE28D4E1 		ldrsh	r2, [r4, #142]
ARM GAS  C:\Users\samsp\AppData\Local\Temp\ccExkJlC.s 			page 15


 814              		.loc 1 98 44 view .LVU212
 815 029c 0010A0E1 		mov	r1, r0
 816              	.LVL59:
 817              		.loc 1 99 2 is_stmt 1 view .LVU213
 818              		.loc 1 99 14 is_stmt 0 view .LVU214
 819 02a0 44009FE5 		ldr	r0, .L38+4
 820              	.LVL60:
 821              		.loc 1 99 14 view .LVU215
 822 02a4 00208DE5 		str	r2, [sp]
 823 02a8 04008DE5 		str	r0, [sp, #4]
 824 02ac BB2F84E2 		add	r2, r4, #748
 825 02b0 490F84E2 		add	r0, r4, #292
 826 02b4 013AA0E3 		mov	r3, #4096
 827 02b8 FEFFFFEB 		bl	_ZN18MovingMeshCollider7SetFileEPcR9Matrix4x35Fix12IiEsR10CLPS_Block
 828              	.LVL61:
 829              		.loc 1 101 2 is_stmt 1 view .LVU216
 830              		.loc 1 101 26 is_stmt 0 view .LVU217
 831 02bc 2C209FE5 		ldr	r2, .L38+8
 832              		.loc 1 102 25 view .LVU218
 833 02c0 2C309FE5 		ldr	r3, .L38+12
 834              		.loc 1 104 22 view .LVU219
 835 02c4 0400A0E1 		mov	r0, r4
 836              		.loc 1 101 26 view .LVU220
 837 02c8 3C2184E5 		str	r2, [r4, #316]
 838              		.loc 1 102 2 is_stmt 1 view .LVU221
 839              		.loc 1 102 25 is_stmt 0 view .LVU222
 840 02cc 403184E5 		str	r3, [r4, #320]
 841              		.loc 1 104 2 is_stmt 1 view .LVU223
 842              		.loc 1 104 22 is_stmt 0 view .LVU224
 843 02d0 FEFFFFEB 		bl	_ZN23GalaxyShrinkingPlatform20UpdateModelTransformEv
 844              	.LVL62:
 845              		.loc 1 105 2 is_stmt 1 view .LVU225
 846              		.loc 1 105 21 is_stmt 0 view .LVU226
 847 02d4 0400A0E1 		mov	r0, r4
 848 02d8 FEFFFFEB 		bl	_ZN8Platform19UpdateClsnPosAndRotEv
 849              	.LVL63:
 850              		.loc 1 107 2 is_stmt 1 view .LVU227
 851              		.loc 1 108 1 is_stmt 0 view .LVU228
 852 02dc 0100A0E3 		mov	r0, #1
 853 02e0 0CD08DE2 		add	sp, sp, #12
 854              		.cfi_def_cfa_offset 12
 855              		@ sp needed
 856 02e4 3080BDE8 		pop	{r4, r5, pc}
 857              	.LVL64:
 858              	.L39:
 859              		.loc 1 108 1 view .LVU229
 860              		.align	2
 861              	.L38:
 862 02e8 00000000 		.word	.LANCHOR1
 863 02ec 00000000 		.word	.LANCHOR2
 864 02f0 48930302 		.word	33788744
 865 02f4 00000000 		.word	_ZN23GalaxyShrinkingPlatform16OnFloorAfterClsnER12MeshColliderP5ActorS3_
 866              		.cfi_endproc
 867              	.LFE1157:
 869              		.align	2
 870              		.global	_ZN23GalaxyShrinkingPlatform6RenderEv
 871              		.syntax unified
ARM GAS  C:\Users\samsp\AppData\Local\Temp\ccExkJlC.s 			page 16


 872              		.arm
 873              		.fpu softvfp
 875              	_ZN23GalaxyShrinkingPlatform6RenderEv:
 876              	.LVL65:
 877              	.LFB1160:
 878              		.loc 1 148 1 is_stmt 1 view -0
 879              		.cfi_startproc
 880              		@ args = 0, pretend = 0, frame = 0
 881              		@ frame_needed = 0, uses_anonymous_args = 0
 882              		.loc 1 149 2 view .LVU231
 883 02f8 203390E5 		ldr	r3, [r0, #800]
 884              		.loc 1 148 1 is_stmt 0 view .LVU232
 885 02fc 10402DE9 		push	{r4, lr}
 886              		.cfi_def_cfa_offset 8
 887              		.cfi_offset 4, -8
 888              		.cfi_offset 14, -4
 889              		.loc 1 149 2 view .LVU233
 890 0300 000053E3 		cmp	r3, #0
 891              		.loc 1 148 1 view .LVU234
 892 0304 0040A0E1 		mov	r4, r0
 893              	.LVL66:
 894              	.LBB206:
 895              	.LBI206:
 896              		.loc 3 56 26 is_stmt 1 view .LVU235
 897              		.loc 3 56 26 is_stmt 0 view .LVU236
 898              	.LBE206:
 899              		.loc 1 149 2 view .LVU237
 900 0308 0400001A 		bne	.L46
 901              	.LVL67:
 902              	.L41:
 903              		.loc 1 152 2 is_stmt 1 view .LVU238
 904              		.loc 1 152 19 is_stmt 0 view .LVU239
 905 030c 330E84E2 		add	r0, r4, #816
 906 0310 0010A0E3 		mov	r1, #0
 907 0314 FEFFFFEB 		bl	_ZN5Model6RenderEPK7Vector3
 908              	.LVL68:
 909              		.loc 1 153 2 is_stmt 1 view .LVU240
 910              		.loc 1 154 1 is_stmt 0 view .LVU241
 911 0318 0100A0E3 		mov	r0, #1
 912 031c 1080BDE8 		pop	{r4, pc}
 913              	.LVL69:
 914              	.L46:
 915              		.loc 1 150 3 is_stmt 1 view .LVU242
 916              		.loc 1 150 15 is_stmt 0 view .LVU243
 917 0320 321E80E2 		add	r1, r0, #800
 918 0324 D40080E2 		add	r0, r0, #212
 919              	.LVL70:
 920              		.loc 1 150 15 view .LVU244
 921 0328 FEFFFFEB 		bl	_ZN5Model6RenderEPK7Vector3
 922              	.LVL71:
 923 032c F6FFFFEA 		b	.L41
 924              		.cfi_endproc
 925              	.LFE1160:
 927              		.align	2
 928              		.global	_ZN23GalaxyShrinkingPlatformD2Ev
 929              		.syntax unified
 930              		.arm
ARM GAS  C:\Users\samsp\AppData\Local\Temp\ccExkJlC.s 			page 17


 931              		.fpu softvfp
 933              	_ZN23GalaxyShrinkingPlatformD2Ev:
 934              	.LVL72:
 935              	.LFB1162:
 936              		.loc 1 156 1 is_stmt 1 view -0
 937              		.cfi_startproc
 938              		@ args = 0, pretend = 0, frame = 0
 939              		@ frame_needed = 0, uses_anonymous_args = 0
 940              		.loc 1 156 1 is_stmt 0 view .LVU246
 941 0330 10402DE9 		push	{r4, lr}
 942              		.cfi_def_cfa_offset 8
 943              		.cfi_offset 4, -8
 944              		.cfi_offset 14, -4
 945              		.loc 1 156 1 view .LVU247
 946 0334 0040A0E1 		mov	r4, r0
 947              	.LBB208:
 948              		.loc 1 156 51 view .LVU248
 949 0338 14309FE5 		ldr	r3, .L49
 950 033c 303380E4 		str	r3, [r0], #816
 951              	.LVL73:
 952              		.loc 1 156 51 view .LVU249
 953 0340 FEFFFFEB 		bl	_ZN5ModelD1Ev
 954              	.LVL74:
 955 0344 0400A0E1 		mov	r0, r4
 956 0348 FEFFFFEB 		bl	_ZN8PlatformD2Ev
 957              	.LVL75:
 958              	.LBE208:
 959              		.loc 1 156 54 view .LVU250
 960 034c 0400A0E1 		mov	r0, r4
 961 0350 1080BDE8 		pop	{r4, pc}
 962              	.L50:
 963              		.align	2
 964              	.L49:
 965 0354 08000000 		.word	.LANCHOR0+8
 966              		.cfi_endproc
 967              	.LFE1162:
 969              		.global	_ZN23GalaxyShrinkingPlatformD1Ev
 970              		.set	_ZN23GalaxyShrinkingPlatformD1Ev,_ZN23GalaxyShrinkingPlatformD2Ev
 971              		.align	2
 972              		.global	_ZN23GalaxyShrinkingPlatformD0Ev
 973              		.syntax unified
 974              		.arm
 975              		.fpu softvfp
 977              	_ZN23GalaxyShrinkingPlatformD0Ev:
 978              	.LVL76:
 979              	.LFB1164:
 980              		.loc 1 156 1 is_stmt 1 view -0
 981              		.cfi_startproc
 982              		@ args = 0, pretend = 0, frame = 0
 983              		@ frame_needed = 0, uses_anonymous_args = 0
 984              		.loc 1 156 1 is_stmt 0 view .LVU252
 985 0358 10402DE9 		push	{r4, lr}
 986              		.cfi_def_cfa_offset 8
 987              		.cfi_offset 4, -8
 988              		.cfi_offset 14, -4
 989              		.loc 1 156 1 view .LVU253
 990 035c 0040A0E1 		mov	r4, r0
ARM GAS  C:\Users\samsp\AppData\Local\Temp\ccExkJlC.s 			page 18


 991              	.LVL77:
 992              	.LBB214:
 993              	.LBI214:
 994              		.loc 1 156 1 is_stmt 1 view .LVU254
 995              	.LBB215:
 996              		.loc 1 156 51 is_stmt 0 view .LVU255
 997 0360 24309FE5 		ldr	r3, .L53
 998 0364 303380E4 		str	r3, [r0], #816
 999              	.LVL78:
 1000              		.loc 1 156 51 view .LVU256
 1001 0368 FEFFFFEB 		bl	_ZN5ModelD1Ev
 1002              	.LVL79:
 1003 036c 0400A0E1 		mov	r0, r4
 1004 0370 FEFFFFEB 		bl	_ZN8PlatformD2Ev
 1005              	.LVL80:
 1006              		.loc 1 156 51 view .LVU257
 1007              	.LBE215:
 1008              	.LBE214:
 1009              	.LBB216:
 1010              	.LBI216:
 1011              		.file 4 "C:/Users/samsp/Documents/MoreObjectsMod/ASM/source/SM64DS_2.h"
 1012              		.loc 4 91 14 is_stmt 1 view .LVU258
 1013              	.LBB217:
 1014              		.loc 4 91 42 view .LVU259
 1015              		.loc 4 91 60 is_stmt 0 view .LVU260
 1016 0374 14309FE5 		ldr	r3, .L53+4
 1017 0378 0400A0E1 		mov	r0, r4
 1018 037c AC1E93E5 		ldr	r1, [r3, #3756]
 1019 0380 FEFFFFEB 		bl	FreeHeapAllocation
 1020              	.LVL81:
 1021              		.loc 4 91 60 view .LVU261
 1022              	.LBE217:
 1023              	.LBE216:
 1024              		.loc 1 156 54 view .LVU262
 1025 0384 0400A0E1 		mov	r0, r4
 1026 0388 1080BDE8 		pop	{r4, pc}
 1027              	.L54:
 1028              		.align	2
 1029              	.L53:
 1030 038c 08000000 		.word	.LANCHOR0+8
 1031 0390 00000A02 		.word	34209792
 1032              		.cfi_endproc
 1033              	.LFE1164:
 1035              		.global	_ZTV23GalaxyShrinkingPlatform
 1036              		.global	_ZN23GalaxyShrinkingPlatform9spawnDataE
 1037              		.global	_ZN23GalaxyShrinkingPlatform14frameModelFileE
 1038              		.global	_ZN23GalaxyShrinkingPlatform8clsnFileE
 1039              		.global	_ZN23GalaxyShrinkingPlatform9modelFileE
 1040              		.section	.rodata
 1041              		.align	2
 1042              		.set	.LANCHOR0,. + 0
 1045              	_ZTV23GalaxyShrinkingPlatform:
 1046 0000 00000000 		.word	0
 1047 0004 00000000 		.word	0
 1048 0008 00000000 		.word	_ZN23GalaxyShrinkingPlatform13InitResourcesEv
 1049 000c 00000000 		.word	_ZN5Actor19BeforeInitResourcesEv
 1050 0010 00000000 		.word	_ZN5Actor18AfterInitResourcesEj
ARM GAS  C:\Users\samsp\AppData\Local\Temp\ccExkJlC.s 			page 19


 1051 0014 00000000 		.word	_ZN23GalaxyShrinkingPlatform16CleanupResourcesEv
 1052 0018 00000000 		.word	_ZN5Actor22BeforeCleanupResourcesEv
 1053 001c 00000000 		.word	_ZN5Actor21AfterCleanupResourcesEj
 1054 0020 00000000 		.word	_ZN23GalaxyShrinkingPlatform8BehaviorEv
 1055 0024 00000000 		.word	_ZN5Actor14BeforeBehaviorEv
 1056 0028 00000000 		.word	_ZN5Actor13AfterBehaviorEj
 1057 002c 00000000 		.word	_ZN23GalaxyShrinkingPlatform6RenderEv
 1058 0030 00000000 		.word	_ZN5Actor12BeforeRenderEv
 1059 0034 00000000 		.word	_ZN5Actor11AfterRenderEj
 1060 0038 00000000 		.word	_ZN9ActorBase9Virtual30Ev
 1061 003c 00000000 		.word	_ZN9ActorBase9Virtual34Ejj
 1062 0040 00000000 		.word	_ZN9ActorBase9Virtual38Ejj
 1063 0044 00000000 		.word	_ZN9ActorBase9Virtual3cEv
 1064 0048 00000000 		.word	_ZN23GalaxyShrinkingPlatformD1Ev
 1065 004c 00000000 		.word	_ZN23GalaxyShrinkingPlatformD0Ev
 1066 0050 00000000 		.word	_ZN5Actor13OnYoshiTryEatEv
 1067 0054 00000000 		.word	_ZN5Actor13OnTurnIntoEggER6Player
 1068 0058 00000000 		.word	_ZN5Actor9Virtual50Ev
 1069 005c 00000000 		.word	_ZN5Actor15OnGroundPoundedERS_
 1070 0060 00000000 		.word	_ZN5Actor11OnAttacked1ERS_
 1071 0064 00000000 		.word	_ZN5Actor11OnAttacked2ERS_
 1072 0068 00000000 		.word	_ZN5Actor8OnKickedERS_
 1073 006c 00000000 		.word	_ZN5Actor8OnPushedERS_
 1074 0070 00000000 		.word	_ZN5Actor24OnHitByCannonBlastedCharERS_
 1075 0074 00000000 		.word	_ZN5Actor15OnHitByMegaCharER6Player
 1076 0078 00000000 		.word	_ZN5Actor9Virtual70ERS_
 1077 007c 00000000 		.word	_ZN5Actor16OnAimedAtWithEggEv
 1078 0080 00000000 		.word	_ZN5Actor25OnAimedAtWithEggReturnVecEv
 1079 0084 00000000 		.word	_ZN8Platform4KillEv
 1080              	.LC0:
 1081 0088 00100000 		.word	4096
 1082 008c 00100000 		.word	4096
 1083 0090 00100000 		.word	4096
 1084              		.data
 1085              		.align	2
 1086              		.set	.LANCHOR2,. + 0
 1089              	_ZN12_GLOBAL__N_19clpsBlockE:
 1090 0000 434C5053 		.ascii	"CLPS"
 1091 0004 0800     		.short	8
 1092 0006 0100     		.short	1
 1093 0008 C00F0300 		.word	200640
 1094 000c FF000000 		.word	255
 1097              	_ZN23GalaxyShrinkingPlatform9spawnDataE:
 1098 0010 00000000 		.word	_ZN23GalaxyShrinkingPlatform5SpawnEv
 1099 0014 3000     		.short	48
 1100 0016 0001     		.short	256
 1101 0018 02000000 		.word	2
 1102 001c 00000000 		.word	0
 1103 0020 00C05D00 		.word	6144000
 1104 0024 00000001 		.word	16777216
 1105 0028 00000001 		.word	16777216
 1106              		.bss
 1107              		.align	2
 1108              		.set	.LANCHOR1,. + 0
 1111              	_ZN23GalaxyShrinkingPlatform9modelFileE:
 1112 0000 00000000 		.space	8
 1112      00000000 
ARM GAS  C:\Users\samsp\AppData\Local\Temp\ccExkJlC.s 			page 20


 1115              	_ZN23GalaxyShrinkingPlatform8clsnFileE:
 1116 0008 00000000 		.space	8
 1116      00000000 
 1119              	_ZN23GalaxyShrinkingPlatform14frameModelFileE:
 1120 0010 00000000 		.space	8
 1120      00000000 
 1121              		.text
 1122              	.Letext0:
 1123              		.file 5 "c:\\devkitpro\\devkitarm\\arm-none-eabi\\include\\c++\\10.1.0\\cstdint"
 1124              		.file 6 "c:\\devkitpro\\devkitarm\\arm-none-eabi\\include\\c++\\10.1.0\\type_traits"
 1125              		.file 7 "c:\\devkitpro\\devkitarm\\arm-none-eabi\\include\\c++\\10.1.0\\debug\\debug.h"
 1126              		.file 8 "c:\\devkitpro\\devkitarm\\arm-none-eabi\\include\\c++\\10.1.0\\bits\\std_abs.h"
 1127              		.file 9 "c:\\devkitpro\\devkitarm\\arm-none-eabi\\include\\c++\\10.1.0\\cstdlib"
 1128              		.file 10 "c:\\devkitpro\\devkitarm\\arm-none-eabi\\include\\c++\\10.1.0\\arm-none-eabi\\bits\\c++c
 1129              		.file 11 "c:\\devkitpro\\devkitarm\\arm-none-eabi\\include\\c++\\10.1.0\\bits\\algorithmfwd.h"
 1130              		.file 12 "c:\\devkitpro\\devkitarm\\arm-none-eabi\\include\\c++\\10.1.0\\bits\\stl_pair.h"
 1131              		.file 13 "c:\\devkitpro\\devkitarm\\arm-none-eabi\\include\\c++\\10.1.0\\bits\\exception_ptr.h"
 1132              		.file 14 "c:\\devkitpro\\devkitarm\\arm-none-eabi\\include\\c++\\10.1.0\\bits\\predefined_ops.h"
 1133              		.file 15 "c:\\devkitpro\\devkitarm\\arm-none-eabi\\include\\machine\\_default_types.h"
 1134              		.file 16 "c:\\devkitpro\\devkitarm\\arm-none-eabi\\include\\sys\\_stdint.h"
 1135              		.file 17 "c:\\devkitpro\\devkitarm\\arm-none-eabi\\include\\stdint.h"
 1136              		.file 18 "c:\\devkitpro\\devkitarm\\lib\\gcc\\arm-none-eabi\\10.1.0\\include\\stddef.h"
 1137              		.file 19 "c:\\devkitpro\\devkitarm\\arm-none-eabi\\include\\stdlib.h"
 1138              		.file 20 "C:/devkitPro/libnds/include/nds/ndstypes.h"
 1139              		.file 21 "c:\\devkitpro\\devkitarm\\arm-none-eabi\\include\\c++\\10.1.0\\stdlib.h"
 1140              		.file 22 "C:/devkitPro/libnds/include/nds/arm9/dynamicArray.h"
 1141              		.file 23 "C:/devkitPro/libnds/include/nds/arm9/videoGL.h"
 1142              		.file 24 "C:/Users/samsp/Documents/MoreObjectsMod/ASM/source/Collision.h"
 1143              		.file 25 "C:/Users/samsp/Documents/MoreObjectsMod/ASM/source/Level.h"
 1144              		.file 26 "C:/Users/samsp/Documents/MoreObjectsMod/ASM/source/Particle.h"
 1145              		.file 27 "C:/Users/samsp/Documents/MoreObjectsMod/ASM/source/Sound.h"
 1146              		.file 28 "C:/Users/samsp/Documents/MoreObjectsMod/ASM/source/Model.h"
 1147              		.file 29 "<built-in>"
