ARM GAS  C:\Users\samsp\AppData\Local\Temp\ccr67Doa.s 			page 1


   1              		.arch armv5te
   2              		.eabi_attribute 23, 1
   3              		.eabi_attribute 24, 1
   4              		.eabi_attribute 25, 1
   5              		.eabi_attribute 26, 1
   6              		.eabi_attribute 30, 2
   7              		.eabi_attribute 34, 0
   8              		.eabi_attribute 18, 4
   9              		.file	"InvisibleWall.cpp"
  10              		.text
  11              	.Ltext0:
  12              		.cfi_sections	.debug_frame
  13              		.align	2
  14              		.global	_ZN13InvisibleWall6RenderEv
  15              		.syntax unified
  16              		.arm
  17              		.fpu softvfp
  19              	_ZN13InvisibleWall6RenderEv:
  20              	.LVL0:
  21              	.LFB1157:
  22              		.file 1 "C:/Users/samsp/Documents/MoreObjectsMod/ASM/source/InvisibleWall.cpp"
  23              		.loc 1 73 1 view -0
  24              		.cfi_startproc
  25              		@ args = 0, pretend = 0, frame = 0
  26              		@ frame_needed = 0, uses_anonymous_args = 0
  27              		@ link register save eliminated.
  28              		.loc 1 74 2 view .LVU1
  29              		.loc 1 75 1 is_stmt 0 view .LVU2
  30 0000 0100A0E3 		mov	r0, #1
  31              	.LVL1:
  32              		.loc 1 75 1 view .LVU3
  33 0004 1EFF2FE1 		bx	lr
  34              		.cfi_endproc
  35              	.LFE1157:
  37              		.align	2
  38              		.global	_ZN13InvisibleWall5SpawnEv
  39              		.syntax unified
  40              		.arm
  41              		.fpu softvfp
  43              	_ZN13InvisibleWall5SpawnEv:
  44              	.LFB1149:
  45              		.loc 1 31 1 is_stmt 1 view -0
  46              		.cfi_startproc
  47              		@ args = 0, pretend = 0, frame = 0
  48              		@ frame_needed = 0, uses_anonymous_args = 0
  49              		.loc 1 32 2 view .LVU5
  50              		.loc 1 31 1 is_stmt 0 view .LVU6
  51 0008 10402DE9 		push	{r4, lr}
  52              		.cfi_def_cfa_offset 8
  53              		.cfi_offset 4, -8
  54              		.cfi_offset 14, -4
  55              		.loc 1 32 13 view .LVU7
  56 000c 320EA0E3 		mov	r0, #800
  57 0010 FEFFFFEB 		bl	_ZN9ActorBasenwEj
  58              	.LVL2:
  59 0014 0040A0E1 		mov	r4, r0
  60              	.LVL3:
ARM GAS  C:\Users\samsp\AppData\Local\Temp\ccr67Doa.s 			page 2


  61              	.LBB26:
  62              	.LBI26:
  63              		.file 2 "C:/Users/samsp/Documents/MoreObjectsMod/ASM/source/InvisibleWall.h"
  64              		.loc 2 6 8 is_stmt 1 view .LVU8
  65              	.LBB27:
  66 0018 FEFFFFEB 		bl	_ZN8PlatformC2Ev
  67              	.LVL4:
  68              		.loc 2 6 8 is_stmt 0 view .LVU9
  69 001c 08309FE5 		ldr	r3, .L5
  70              	.LBE27:
  71              	.LBE26:
  72              		.loc 1 33 1 view .LVU10
  73 0020 0400A0E1 		mov	r0, r4
  74              	.LBB29:
  75              	.LBB28:
  76              		.loc 2 6 8 view .LVU11
  77 0024 003084E5 		str	r3, [r4]
  78              	.LVL5:
  79              		.loc 2 6 8 view .LVU12
  80              	.LBE28:
  81              	.LBE29:
  82              		.loc 1 33 1 view .LVU13
  83 0028 1080BDE8 		pop	{r4, pc}
  84              	.L6:
  85              		.align	2
  86              	.L5:
  87 002c 08000000 		.word	.LANCHOR0+8
  88              		.cfi_endproc
  89              	.LFE1149:
  91              		.align	2
  92              		.global	_ZN13InvisibleWall16CleanupResourcesEv
  93              		.syntax unified
  94              		.arm
  95              		.fpu softvfp
  97              	_ZN13InvisibleWall16CleanupResourcesEv:
  98              	.LVL6:
  99              	.LFB1155:
 100              		.loc 1 59 1 is_stmt 1 view -0
 101              		.cfi_startproc
 102              		@ args = 0, pretend = 0, frame = 0
 103              		@ frame_needed = 0, uses_anonymous_args = 0
 104              		.loc 1 60 2 view .LVU15
 105              		.loc 1 59 1 is_stmt 0 view .LVU16
 106 0030 10402DE9 		push	{r4, lr}
 107              		.cfi_def_cfa_offset 8
 108              		.cfi_offset 4, -8
 109              		.cfi_offset 14, -4
 110              		.loc 1 60 14 view .LVU17
 111 0034 490F80E2 		add	r0, r0, #292
 112              	.LVL7:
 113              		.loc 1 60 14 view .LVU18
 114 0038 FEFFFFEB 		bl	_ZN12MeshCollider7DisableEv
 115              	.LVL8:
 116              		.loc 1 61 2 is_stmt 1 view .LVU19
 117              		.loc 1 61 18 is_stmt 0 view .LVU20
 118 003c 08009FE5 		ldr	r0, .L9
 119 0040 FEFFFFEB 		bl	_ZN13SharedFilePtr7ReleaseEv
ARM GAS  C:\Users\samsp\AppData\Local\Temp\ccr67Doa.s 			page 3


 120              	.LVL9:
 121              		.loc 1 62 2 is_stmt 1 view .LVU21
 122              		.loc 1 63 1 is_stmt 0 view .LVU22
 123 0044 0100A0E3 		mov	r0, #1
 124 0048 1080BDE8 		pop	{r4, pc}
 125              	.L10:
 126              		.align	2
 127              	.L9:
 128 004c 00000000 		.word	.LANCHOR1
 129              		.cfi_endproc
 130              	.LFE1155:
 132              		.align	2
 133              		.global	_ZN13InvisibleWall8BehaviorEv
 134              		.syntax unified
 135              		.arm
 136              		.fpu softvfp
 138              	_ZN13InvisibleWall8BehaviorEv:
 139              	.LVL10:
 140              	.LFB1156:
 141              		.loc 1 66 1 is_stmt 1 view -0
 142              		.cfi_startproc
 143              		@ args = 0, pretend = 0, frame = 0
 144              		@ frame_needed = 0, uses_anonymous_args = 0
 145              		.loc 1 67 2 view .LVU24
 146              		.loc 1 67 15 is_stmt 0 view .LVU25
 147 0050 0020A0E3 		mov	r2, #0
 148              		.loc 1 66 1 view .LVU26
 149 0054 10402DE9 		push	{r4, lr}
 150              		.cfi_def_cfa_offset 8
 151              		.cfi_offset 4, -8
 152              		.cfi_offset 14, -4
 153              		.loc 1 67 15 view .LVU27
 154 0058 0210A0E1 		mov	r1, r2
 155 005c FEFFFFEB 		bl	_ZN8Platform13IsClsnInRangeE5Fix12IiES1_
 156              	.LVL11:
 157              		.loc 1 69 2 is_stmt 1 view .LVU28
 158              		.loc 1 70 1 is_stmt 0 view .LVU29
 159 0060 0100A0E3 		mov	r0, #1
 160 0064 1080BDE8 		pop	{r4, pc}
 161              		.cfi_endproc
 162              	.LFE1156:
 164              		.align	2
 165              		.global	_ZN13InvisibleWallD2Ev
 166              		.syntax unified
 167              		.arm
 168              		.fpu softvfp
 170              	_ZN13InvisibleWallD2Ev:
 171              	.LVL12:
 172              	.LFB1159:
 173              		.loc 1 77 1 is_stmt 1 view -0
 174              		.cfi_startproc
 175              		@ args = 0, pretend = 0, frame = 0
 176              		@ frame_needed = 0, uses_anonymous_args = 0
 177              		.loc 1 77 1 is_stmt 0 view .LVU31
 178 0068 10402DE9 		push	{r4, lr}
 179              		.cfi_def_cfa_offset 8
 180              		.cfi_offset 4, -8
ARM GAS  C:\Users\samsp\AppData\Local\Temp\ccr67Doa.s 			page 4


 181              		.cfi_offset 14, -4
 182              		.loc 1 77 1 view .LVU32
 183 006c 0040A0E1 		mov	r4, r0
 184              	.LBB30:
 185              		.loc 1 77 31 view .LVU33
 186 0070 0C309FE5 		ldr	r3, .L15
 187 0074 003080E5 		str	r3, [r0]
 188 0078 FEFFFFEB 		bl	_ZN8PlatformD2Ev
 189              	.LVL13:
 190              		.loc 1 77 31 view .LVU34
 191              	.LBE30:
 192              		.loc 1 77 34 view .LVU35
 193 007c 0400A0E1 		mov	r0, r4
 194 0080 1080BDE8 		pop	{r4, pc}
 195              	.L16:
 196              		.align	2
 197              	.L15:
 198 0084 08000000 		.word	.LANCHOR0+8
 199              		.cfi_endproc
 200              	.LFE1159:
 202              		.global	_ZN13InvisibleWallD1Ev
 203              		.set	_ZN13InvisibleWallD1Ev,_ZN13InvisibleWallD2Ev
 204              		.align	2
 205              		.global	_ZN13InvisibleWallD0Ev
 206              		.syntax unified
 207              		.arm
 208              		.fpu softvfp
 210              	_ZN13InvisibleWallD0Ev:
 211              	.LVL14:
 212              	.LFB1161:
 213              		.loc 1 77 1 is_stmt 1 view -0
 214              		.cfi_startproc
 215              		@ args = 0, pretend = 0, frame = 0
 216              		@ frame_needed = 0, uses_anonymous_args = 0
 217              		.loc 1 77 1 is_stmt 0 view .LVU37
 218 0088 10402DE9 		push	{r4, lr}
 219              		.cfi_def_cfa_offset 8
 220              		.cfi_offset 4, -8
 221              		.cfi_offset 14, -4
 222              		.loc 1 77 1 view .LVU38
 223 008c 0040A0E1 		mov	r4, r0
 224              	.LVL15:
 225              	.LBB31:
 226              	.LBI31:
 227              		.loc 1 77 1 is_stmt 1 view .LVU39
 228              	.LBB32:
 229              		.loc 1 77 31 is_stmt 0 view .LVU40
 230 0090 1C309FE5 		ldr	r3, .L19
 231 0094 003080E5 		str	r3, [r0]
 232 0098 FEFFFFEB 		bl	_ZN8PlatformD2Ev
 233              	.LVL16:
 234              		.loc 1 77 31 view .LVU41
 235              	.LBE32:
 236              	.LBE31:
 237              	.LBB33:
 238              	.LBI33:
 239              		.file 3 "C:/Users/samsp/Documents/MoreObjectsMod/ASM/source/SM64DS_2.h"
ARM GAS  C:\Users\samsp\AppData\Local\Temp\ccr67Doa.s 			page 5


 240              		.loc 3 91 14 is_stmt 1 view .LVU42
 241              	.LBB34:
 242              		.loc 3 91 42 view .LVU43
 243              		.loc 3 91 60 is_stmt 0 view .LVU44
 244 009c 14309FE5 		ldr	r3, .L19+4
 245 00a0 0400A0E1 		mov	r0, r4
 246 00a4 AC1E93E5 		ldr	r1, [r3, #3756]
 247 00a8 FEFFFFEB 		bl	FreeHeapAllocation
 248              	.LVL17:
 249              		.loc 3 91 60 view .LVU45
 250              	.LBE34:
 251              	.LBE33:
 252              		.loc 1 77 34 view .LVU46
 253 00ac 0400A0E1 		mov	r0, r4
 254 00b0 1080BDE8 		pop	{r4, pc}
 255              	.L20:
 256              		.align	2
 257              	.L19:
 258 00b4 08000000 		.word	.LANCHOR0+8
 259 00b8 00000A02 		.word	34209792
 260              		.cfi_endproc
 261              	.LFE1161:
 263              		.align	2
 264              		.global	_ZN13InvisibleWall13InitResourcesEv
 265              		.syntax unified
 266              		.arm
 267              		.fpu softvfp
 269              	_ZN13InvisibleWall13InitResourcesEv:
 270              	.LVL18:
 271              	.LFB1154:
 272              		.loc 1 45 1 is_stmt 1 view -0
 273              		.cfi_startproc
 274              		@ args = 0, pretend = 0, frame = 0
 275              		@ frame_needed = 0, uses_anonymous_args = 0
 276              		.loc 1 47 2 view .LVU48
 277              		.loc 1 45 1 is_stmt 0 view .LVU49
 278 00bc 10402DE9 		push	{r4, lr}
 279              		.cfi_def_cfa_offset 8
 280              		.cfi_offset 4, -8
 281              		.cfi_offset 14, -4
 282 00c0 0040A0E1 		mov	r4, r0
 283              	.LVL19:
 284              	.LBB48:
 285              	.LBI48:
 286              		.loc 1 35 6 is_stmt 1 view .LVU50
 287              	.LBB49:
 288              		.loc 1 37 2 view .LVU51
 289              	.LBB50:
 290              	.LBI50:
 291              		.file 4 "C:/Users/samsp/Documents/MoreObjectsMod/ASM/source/SM64DS_Common.h"
 292              		.loc 4 217 14 view .LVU52
 293              	.LBB51:
 294              		.loc 4 217 45 view .LVU53
 295              	.LBE51:
 296              	.LBE50:
 297              	.LBE49:
 298              	.LBE48:
ARM GAS  C:\Users\samsp\AppData\Local\Temp\ccr67Doa.s 			page 6


 299              		.loc 1 45 1 is_stmt 0 view .LVU54
 300 00c4 08D04DE2 		sub	sp, sp, #8
 301              		.cfi_def_cfa_offset 16
 302              	.LBB72:
 303              	.LBB71:
 304              	.LBB53:
 305              	.LBB52:
 306              		.loc 4 217 68 view .LVU55
 307 00c8 FE18D0E1 		ldrsh	r1, [r0, #142]
 308 00cc F00080E2 		add	r0, r0, #240
 309              	.LVL20:
 310              		.loc 4 217 68 view .LVU56
 311 00d0 FEFFFFEB 		bl	Matrix4x3_FromRotationY
 312              	.LVL21:
 313              		.loc 4 217 68 view .LVU57
 314              	.LBE52:
 315              	.LBE53:
 316              		.loc 1 38 2 is_stmt 1 view .LVU58
 317              	.LBB54:
 318              	.LBI54:
 319              		.loc 4 54 28 view .LVU59
 320              	.LBB55:
 321              	.LBB56:
 322              	.LBI56:
 323              		.loc 4 35 28 view .LVU60
 324              		.loc 4 35 28 is_stmt 0 view .LVU61
 325              	.LBE56:
 326              	.LBE55:
 327              	.LBE54:
 328              	.LBB58:
 329              	.LBB59:
 330              		.loc 4 54 68 view .LVU62
 331 00d4 5C1084E2 		add	r1, r4, #92
 332 00d8 0E0091E8 		ldm	r1, {r1, r2, r3}
 333              	.LBE59:
 334              	.LBE58:
 335              	.LBB63:
 336              	.LBB57:
 337 00dc C111A0E1 		asr	r1, r1, #3
 338              	.LBE57:
 339              	.LBE63:
 340              	.LBB64:
 341              	.LBB65:
 342 00e0 C221A0E1 		asr	r2, r2, #3
 343              	.LBE65:
 344              	.LBE64:
 345              	.LBB68:
 346              	.LBB61:
 347 00e4 C331A0E1 		asr	r3, r3, #3
 348              	.LBE61:
 349              	.LBE68:
 350              		.loc 1 38 31 view .LVU63
 351 00e8 141184E5 		str	r1, [r4, #276]
 352              		.loc 1 39 2 is_stmt 1 view .LVU64
 353              	.LVL22:
 354              	.LBB69:
 355              	.LBI64:
ARM GAS  C:\Users\samsp\AppData\Local\Temp\ccr67Doa.s 			page 7


 356              		.loc 4 54 28 view .LVU65
 357              	.LBB67:
 358              	.LBB66:
 359              	.LBI66:
 360              		.loc 4 35 28 view .LVU66
 361              		.loc 4 35 28 is_stmt 0 view .LVU67
 362              	.LBE66:
 363              	.LBE67:
 364              	.LBE69:
 365              		.loc 1 39 31 view .LVU68
 366 00ec 182184E5 		str	r2, [r4, #280]
 367              		.loc 1 40 2 is_stmt 1 view .LVU69
 368              	.LVL23:
 369              	.LBB70:
 370              	.LBI58:
 371              		.loc 4 54 28 view .LVU70
 372              	.LBB62:
 373              	.LBB60:
 374              	.LBI60:
 375              		.loc 4 35 28 view .LVU71
 376              		.loc 4 35 28 is_stmt 0 view .LVU72
 377              	.LBE60:
 378              	.LBE62:
 379              	.LBE70:
 380              		.loc 1 40 31 view .LVU73
 381 00f0 1C3184E5 		str	r3, [r4, #284]
 382              	.LVL24:
 383              		.loc 1 40 31 view .LVU74
 384              	.LBE71:
 385              	.LBE72:
 386              		.loc 1 48 2 is_stmt 1 view .LVU75
 387              		.loc 1 48 21 is_stmt 0 view .LVU76
 388 00f4 0400A0E1 		mov	r0, r4
 389 00f8 FEFFFFEB 		bl	_ZN8Platform19UpdateClsnPosAndRotEv
 390              	.LVL25:
 391              		.loc 1 50 2 is_stmt 1 view .LVU77
 392              		.loc 1 50 44 is_stmt 0 view .LVU78
 393 00fc 34009FE5 		ldr	r0, .L23
 394 0100 FEFFFFEB 		bl	_ZN18MovingMeshCollider8LoadFileER13SharedFilePtr
 395              	.LVL26:
 396              		.loc 1 51 14 view .LVU79
 397 0104 FE28D4E1 		ldrsh	r2, [r4, #142]
 398 0108 2CC09FE5 		ldr	ip, .L23+4
 399              		.loc 1 50 44 view .LVU80
 400 010c 0010A0E1 		mov	r1, r0
 401              	.LVL27:
 402              		.loc 1 51 2 is_stmt 1 view .LVU81
 403              		.loc 1 51 14 is_stmt 0 view .LVU82
 404 0110 04108DE8 		stm	sp, {r2, ip}
 405 0114 490F84E2 		add	r0, r4, #292
 406              	.LVL28:
 407              		.loc 1 51 14 view .LVU83
 408 0118 013AA0E3 		mov	r3, #4096
 409 011c BB2F84E2 		add	r2, r4, #748
 410 0120 FEFFFFEB 		bl	_ZN18MovingMeshCollider7SetFileEPcR9Matrix4x35Fix12IiEsR10CLPS_Block
 411              	.LVL29:
 412              		.loc 1 53 2 is_stmt 1 view .LVU84
ARM GAS  C:\Users\samsp\AppData\Local\Temp\ccr67Doa.s 			page 8


 413              		.loc 1 56 1 is_stmt 0 view .LVU85
 414 0124 0100A0E3 		mov	r0, #1
 415              		.loc 1 53 26 view .LVU86
 416 0128 10309FE5 		ldr	r3, .L23+8
 417 012c 3C3184E5 		str	r3, [r4, #316]
 418              		.loc 1 55 2 is_stmt 1 view .LVU87
 419              		.loc 1 56 1 is_stmt 0 view .LVU88
 420 0130 08D08DE2 		add	sp, sp, #8
 421              		.cfi_def_cfa_offset 8
 422              		@ sp needed
 423 0134 1080BDE8 		pop	{r4, pc}
 424              	.LVL30:
 425              	.L24:
 426              		.loc 1 56 1 view .LVU89
 427              		.align	2
 428              	.L23:
 429 0138 00000000 		.word	.LANCHOR1
 430 013c 00000000 		.word	.LANCHOR2
 431 0140 48930302 		.word	33788744
 432              		.cfi_endproc
 433              	.LFE1154:
 435              		.align	2
 436              		.global	_ZN13InvisibleWall20UpdateModelTransformEv
 437              		.syntax unified
 438              		.arm
 439              		.fpu softvfp
 441              	_ZN13InvisibleWall20UpdateModelTransformEv:
 442              	.LVL31:
 443              	.LFB1153:
 444              		.loc 1 36 1 is_stmt 1 view -0
 445              		.cfi_startproc
 446              		@ args = 0, pretend = 0, frame = 0
 447              		@ frame_needed = 0, uses_anonymous_args = 0
 448              		.loc 1 37 2 view .LVU91
 449              		.loc 1 36 1 is_stmt 0 view .LVU92
 450 0144 10402DE9 		push	{r4, lr}
 451              		.cfi_def_cfa_offset 8
 452              		.cfi_offset 4, -8
 453              		.cfi_offset 14, -4
 454              		.loc 1 36 1 view .LVU93
 455 0148 0040A0E1 		mov	r4, r0
 456              	.LVL32:
 457              	.LBB73:
 458              	.LBI73:
 459              		.loc 4 217 14 is_stmt 1 view .LVU94
 460              	.LBB74:
 461              		.loc 4 217 45 view .LVU95
 462              		.loc 4 217 68 is_stmt 0 view .LVU96
 463 014c FE18D0E1 		ldrsh	r1, [r0, #142]
 464 0150 F00080E2 		add	r0, r0, #240
 465              	.LVL33:
 466              		.loc 4 217 68 view .LVU97
 467 0154 FEFFFFEB 		bl	Matrix4x3_FromRotationY
 468              	.LVL34:
 469              		.loc 4 217 68 view .LVU98
 470              	.LBE74:
 471              	.LBE73:
ARM GAS  C:\Users\samsp\AppData\Local\Temp\ccr67Doa.s 			page 9


 472              		.loc 1 38 2 is_stmt 1 view .LVU99
 473              	.LBB75:
 474              	.LBI75:
 475              		.loc 4 54 28 view .LVU100
 476              	.LBB76:
 477              	.LBB77:
 478              	.LBI77:
 479              		.loc 4 35 28 view .LVU101
 480              		.loc 4 35 28 is_stmt 0 view .LVU102
 481              	.LBE77:
 482              	.LBE76:
 483              	.LBE75:
 484              	.LBB79:
 485              	.LBB80:
 486              		.loc 4 54 68 view .LVU103
 487 0158 5C1084E2 		add	r1, r4, #92
 488 015c 0E0091E8 		ldm	r1, {r1, r2, r3}
 489              	.LBE80:
 490              	.LBE79:
 491              	.LBB84:
 492              	.LBB78:
 493 0160 C111A0E1 		asr	r1, r1, #3
 494              	.LBE78:
 495              	.LBE84:
 496              	.LBB85:
 497              	.LBB86:
 498 0164 C221A0E1 		asr	r2, r2, #3
 499              	.LBE86:
 500              	.LBE85:
 501              	.LBB89:
 502              	.LBB82:
 503 0168 C331A0E1 		asr	r3, r3, #3
 504              	.LBE82:
 505              	.LBE89:
 506              		.loc 1 38 31 view .LVU104
 507 016c 141184E5 		str	r1, [r4, #276]
 508              		.loc 1 39 2 is_stmt 1 view .LVU105
 509              	.LVL35:
 510              	.LBB90:
 511              	.LBI85:
 512              		.loc 4 54 28 view .LVU106
 513              	.LBB88:
 514              	.LBB87:
 515              	.LBI87:
 516              		.loc 4 35 28 view .LVU107
 517              		.loc 4 35 28 is_stmt 0 view .LVU108
 518              	.LBE87:
 519              	.LBE88:
 520              	.LBE90:
 521              		.loc 1 39 31 view .LVU109
 522 0170 182184E5 		str	r2, [r4, #280]
 523              		.loc 1 40 2 is_stmt 1 view .LVU110
 524              	.LVL36:
 525              	.LBB91:
 526              	.LBI79:
 527              		.loc 4 54 28 view .LVU111
 528              	.LBB83:
ARM GAS  C:\Users\samsp\AppData\Local\Temp\ccr67Doa.s 			page 10


 529              	.LBB81:
 530              	.LBI81:
 531              		.loc 4 35 28 view .LVU112
 532              		.loc 4 35 28 is_stmt 0 view .LVU113
 533              	.LBE81:
 534              	.LBE83:
 535              	.LBE91:
 536              		.loc 1 40 31 view .LVU114
 537 0174 1C3184E5 		str	r3, [r4, #284]
 538              		.loc 1 41 1 view .LVU115
 539 0178 1080BDE8 		pop	{r4, pc}
 540              		.cfi_endproc
 541              	.LFE1153:
 543              		.global	_ZTV13InvisibleWall
 544              		.global	_ZN13InvisibleWall9spawnDataE
 545              		.global	_ZN13InvisibleWall8clsnFileE
 546              		.section	.rodata
 547              		.align	2
 548              		.set	.LANCHOR0,. + 0
 551              	_ZTV13InvisibleWall:
 552 0000 00000000 		.word	0
 553 0004 00000000 		.word	0
 554 0008 00000000 		.word	_ZN13InvisibleWall13InitResourcesEv
 555 000c 00000000 		.word	_ZN5Actor19BeforeInitResourcesEv
 556 0010 00000000 		.word	_ZN5Actor18AfterInitResourcesEj
 557 0014 00000000 		.word	_ZN13InvisibleWall16CleanupResourcesEv
 558 0018 00000000 		.word	_ZN5Actor22BeforeCleanupResourcesEv
 559 001c 00000000 		.word	_ZN5Actor21AfterCleanupResourcesEj
 560 0020 00000000 		.word	_ZN13InvisibleWall8BehaviorEv
 561 0024 00000000 		.word	_ZN5Actor14BeforeBehaviorEv
 562 0028 00000000 		.word	_ZN5Actor13AfterBehaviorEj
 563 002c 00000000 		.word	_ZN13InvisibleWall6RenderEv
 564 0030 00000000 		.word	_ZN5Actor12BeforeRenderEv
 565 0034 00000000 		.word	_ZN5Actor11AfterRenderEj
 566 0038 00000000 		.word	_ZN9ActorBase9Virtual30Ev
 567 003c 00000000 		.word	_ZN9ActorBase9Virtual34Ejj
 568 0040 00000000 		.word	_ZN9ActorBase9Virtual38Ejj
 569 0044 00000000 		.word	_ZN9ActorBase9Virtual3cEv
 570 0048 00000000 		.word	_ZN13InvisibleWallD1Ev
 571 004c 00000000 		.word	_ZN13InvisibleWallD0Ev
 572 0050 00000000 		.word	_ZN5Actor13OnYoshiTryEatEv
 573 0054 00000000 		.word	_ZN5Actor13OnTurnIntoEggER6Player
 574 0058 00000000 		.word	_ZN5Actor9Virtual50Ev
 575 005c 00000000 		.word	_ZN5Actor15OnGroundPoundedERS_
 576 0060 00000000 		.word	_ZN5Actor11OnAttacked1ERS_
 577 0064 00000000 		.word	_ZN5Actor11OnAttacked2ERS_
 578 0068 00000000 		.word	_ZN5Actor8OnKickedERS_
 579 006c 00000000 		.word	_ZN5Actor8OnPushedERS_
 580 0070 00000000 		.word	_ZN5Actor24OnHitByCannonBlastedCharERS_
 581 0074 00000000 		.word	_ZN5Actor15OnHitByMegaCharER6Player
 582 0078 00000000 		.word	_ZN5Actor9Virtual70ERS_
 583 007c 00000000 		.word	_ZN5Actor16OnAimedAtWithEggEv
 584 0080 00000000 		.word	_ZN5Actor25OnAimedAtWithEggReturnVecEv
 585 0084 00000000 		.word	_ZN8Platform4KillEv
 586              		.data
 587              		.align	2
 588              		.set	.LANCHOR2,. + 0
ARM GAS  C:\Users\samsp\AppData\Local\Temp\ccr67Doa.s 			page 11


 591              	_ZN12_GLOBAL__N_19clpsBlockE:
 592 0000 434C5053 		.ascii	"CLPS"
 593 0004 0800     		.short	8
 594 0006 0100     		.short	1
 595 0008 C05F0000 		.word	24512
 596 000c FF000000 		.word	255
 599              	_ZN13InvisibleWall9spawnDataE:
 600 0010 00000000 		.word	_ZN13InvisibleWall5SpawnEv
 601 0014 0000     		.short	0
 602 0016 0001     		.short	256
 603 0018 03000000 		.word	3
 604 001c 00400600 		.word	409600
 605 0020 00800C00 		.word	819200
 606 0024 00000001 		.word	16777216
 607 0028 00000001 		.word	16777216
 608              		.bss
 609              		.align	2
 610              		.set	.LANCHOR1,. + 0
 613              	_ZN13InvisibleWall8clsnFileE:
 614 0000 00000000 		.space	8
 614      00000000 
 615              		.text
 616              	.Letext0:
 617              		.file 5 "c:\\devkitpro\\devkitarm\\arm-none-eabi\\include\\c++\\10.1.0\\cstdint"
 618              		.file 6 "c:\\devkitpro\\devkitarm\\arm-none-eabi\\include\\c++\\10.1.0\\type_traits"
 619              		.file 7 "c:\\devkitpro\\devkitarm\\arm-none-eabi\\include\\c++\\10.1.0\\debug\\debug.h"
 620              		.file 8 "c:\\devkitpro\\devkitarm\\arm-none-eabi\\include\\c++\\10.1.0\\bits\\std_abs.h"
 621              		.file 9 "c:\\devkitpro\\devkitarm\\arm-none-eabi\\include\\c++\\10.1.0\\cstdlib"
 622              		.file 10 "c:\\devkitpro\\devkitarm\\arm-none-eabi\\include\\c++\\10.1.0\\arm-none-eabi\\bits\\c++c
 623              		.file 11 "c:\\devkitpro\\devkitarm\\arm-none-eabi\\include\\c++\\10.1.0\\bits\\algorithmfwd.h"
 624              		.file 12 "c:\\devkitpro\\devkitarm\\arm-none-eabi\\include\\c++\\10.1.0\\bits\\stl_pair.h"
 625              		.file 13 "c:\\devkitpro\\devkitarm\\arm-none-eabi\\include\\c++\\10.1.0\\bits\\exception_ptr.h"
 626              		.file 14 "c:\\devkitpro\\devkitarm\\arm-none-eabi\\include\\c++\\10.1.0\\bits\\predefined_ops.h"
 627              		.file 15 "c:\\devkitpro\\devkitarm\\arm-none-eabi\\include\\machine\\_default_types.h"
 628              		.file 16 "c:\\devkitpro\\devkitarm\\arm-none-eabi\\include\\sys\\_stdint.h"
 629              		.file 17 "c:\\devkitpro\\devkitarm\\arm-none-eabi\\include\\stdint.h"
 630              		.file 18 "c:\\devkitpro\\devkitarm\\lib\\gcc\\arm-none-eabi\\10.1.0\\include\\stddef.h"
 631              		.file 19 "c:\\devkitpro\\devkitarm\\arm-none-eabi\\include\\stdlib.h"
 632              		.file 20 "C:/devkitPro/libnds/include/nds/ndstypes.h"
 633              		.file 21 "c:\\devkitpro\\devkitarm\\arm-none-eabi\\include\\c++\\10.1.0\\stdlib.h"
 634              		.file 22 "C:/devkitPro/libnds/include/nds/arm9/dynamicArray.h"
 635              		.file 23 "C:/devkitPro/libnds/include/nds/arm9/videoGL.h"
 636              		.file 24 "C:/Users/samsp/Documents/MoreObjectsMod/ASM/source/Collision.h"
 637              		.file 25 "C:/Users/samsp/Documents/MoreObjectsMod/ASM/source/Level.h"
 638              		.file 26 "C:/Users/samsp/Documents/MoreObjectsMod/ASM/source/Particle.h"
 639              		.file 27 "C:/Users/samsp/Documents/MoreObjectsMod/ASM/source/Sound.h"
 640              		.file 28 "<built-in>"
