ARM GAS  C:\Users\samsp\AppData\Local\Temp\ccpUeyA2.s 			page 1


   1              		.arch armv5te
   2              		.eabi_attribute 23, 1
   3              		.eabi_attribute 24, 1
   4              		.eabi_attribute 25, 1
   5              		.eabi_attribute 26, 1
   6              		.eabi_attribute 30, 2
   7              		.eabi_attribute 34, 0
   8              		.eabi_attribute 18, 4
   9              		.file	"MOMLoader.cpp"
  10              		.text
  11              	.Ltext0:
  12              		.cfi_sections	.debug_frame
  13              		.align	2
  14              		.global	_Z4initv
  15              		.syntax unified
  16              		.arm
  17              		.fpu softvfp
  19              	_Z4initv:
  20              	.LFB1152:
  21              		.file 1 "C:/Users/samsp/Documents/MoreObjectsMod/ASM/source/MOMLoader.cpp"
  22              		.loc 1 61 1 view -0
  23              		.cfi_startproc
  24              		@ args = 0, pretend = 0, frame = 0
  25              		@ frame_needed = 0, uses_anonymous_args = 0
  26              		.loc 1 64 2 view .LVU1
  27              		.loc 1 61 1 is_stmt 0 view .LVU2
  28 0000 70402DE9 		push	{r4, r5, r6, lr}
  29              		.cfi_def_cfa_offset 16
  30              		.cfi_offset 4, -16
  31              		.cfi_offset 5, -12
  32              		.cfi_offset 6, -8
  33              		.cfi_offset 14, -4
  34              		.loc 1 64 24 view .LVU3
  35 0004 74019FE5 		ldr	r0, .L33
  36 0008 FEFFFFEB 		bl	LoadFile
  37              	.LVL0:
  38              		.loc 1 67 15 view .LVU4
  39 000c 70319FE5 		ldr	r3, .L33+4
  40              		.loc 1 64 24 view .LVU5
  41 0010 0040A0E1 		mov	r4, r0
  42              	.LVL1:
  43              		.loc 1 67 2 is_stmt 1 view .LVU6
  44              		.loc 1 70 2 view .LVU7
  45              	.LBB42:
  46              	.LBI42:
  47              		.loc 1 45 7 view .LVU8
  48              	.LBB43:
  49              		.loc 1 47 3 view .LVU9
  50              		.loc 1 47 3 is_stmt 0 view .LVU10
  51              	.LBE43:
  52              	.LBE42:
  53              		.loc 1 41 3 is_stmt 1 view .LVU11
  54              		.loc 1 67 6 is_stmt 0 view .LVU12
  55 0014 0050D3E5 		ldrb	r5, [r3]	@ zero_extendqisi2
  56              	.LBB45:
  57              	.LBB44:
  58              		.loc 1 47 40 view .LVU13
ARM GAS  C:\Users\samsp\AppData\Local\Temp\ccpUeyA2.s 			page 2


  59 0018 0532D0E7 		ldrb	r3, [r0, r5, lsl #4]	@ zero_extendqisi2
  60              	.LVL2:
  61              		.loc 1 47 40 view .LVU14
  62              	.LBE44:
  63              	.LBE45:
  64              		.loc 1 41 3 is_stmt 1 view .LVU15
  65              		.loc 1 70 2 is_stmt 0 view .LVU16
  66 001c 010013E3 		tst	r3, #1
  67 0020 1200001A 		bne	.L28
  68              		.loc 1 76 2 is_stmt 1 view .LVU17
  69              	.LVL3:
  70              	.LBB46:
  71              	.LBI46:
  72              		.loc 1 45 7 view .LVU18
  73              	.LBB47:
  74              		.loc 1 47 3 view .LVU19
  75              		.loc 1 47 3 is_stmt 0 view .LVU20
  76              	.LBE47:
  77              	.LBE46:
  78              		.loc 1 41 3 is_stmt 1 view .LVU21
  79              		.loc 1 41 3 view .LVU22
  80              		.loc 1 76 2 is_stmt 0 view .LVU23
  81 0024 020013E3 		tst	r3, #2
  82 0028 2200001A 		bne	.L29
  83              	.LVL4:
  84              	.L3:
  85              		.loc 1 80 2 is_stmt 1 view .LVU24
  86              	.LBB50:
  87              	.LBI50:
  88              		.loc 1 45 7 view .LVU25
  89              	.LBB51:
  90              		.loc 1 47 3 view .LVU26
  91              		.loc 1 47 3 is_stmt 0 view .LVU27
  92              	.LBE51:
  93              	.LBE50:
  94              		.loc 1 41 3 is_stmt 1 view .LVU28
  95              		.loc 1 41 3 view .LVU29
  96              		.loc 1 80 2 is_stmt 0 view .LVU30
  97 002c 040013E3 		tst	r3, #4
  98 0030 2C00001A 		bne	.L30
  99              	.L4:
 100              		.loc 1 84 2 is_stmt 1 view .LVU31
 101              	.LVL5:
 102              	.LBB54:
 103              	.LBI54:
 104              		.loc 1 45 7 view .LVU32
 105              	.LBB55:
 106              		.loc 1 47 3 view .LVU33
 107              		.loc 1 47 3 is_stmt 0 view .LVU34
 108              	.LBE55:
 109              	.LBE54:
 110              		.loc 1 41 3 is_stmt 1 view .LVU35
 111              		.loc 1 41 3 view .LVU36
 112              		.loc 1 84 2 is_stmt 0 view .LVU37
 113 0034 080013E3 		tst	r3, #8
 114 0038 3600001A 		bne	.L31
 115              	.L5:
ARM GAS  C:\Users\samsp\AppData\Local\Temp\ccpUeyA2.s 			page 3


 116              		.loc 1 89 2 is_stmt 1 view .LVU38
 117              	.LVL6:
 118              	.LBB58:
 119              	.LBI58:
 120              		.loc 1 45 7 view .LVU39
 121              	.LBB59:
 122              		.loc 1 47 3 view .LVU40
 123              		.loc 1 47 3 is_stmt 0 view .LVU41
 124              	.LBE59:
 125              	.LBE58:
 126              		.loc 1 41 3 is_stmt 1 view .LVU42
 127              		.loc 1 41 3 view .LVU43
 128              		.loc 1 89 2 is_stmt 0 view .LVU44
 129 003c 100013E3 		tst	r3, #16
 130 0040 4300001A 		bne	.L32
 131              	.L6:
 132              		.loc 1 93 2 is_stmt 1 view .LVU45
 133              	.LVL7:
 134              	.LBB62:
 135              	.LBI62:
 136              		.loc 1 45 7 view .LVU46
 137              	.LBB63:
 138              		.loc 1 47 3 view .LVU47
 139              		.loc 1 47 3 is_stmt 0 view .LVU48
 140              	.LBE63:
 141              	.LBE62:
 142              		.loc 1 41 3 is_stmt 1 view .LVU49
 143              		.loc 1 41 3 view .LVU50
 144              		.loc 1 93 2 is_stmt 0 view .LVU51
 145 0044 200013E3 		tst	r3, #32
 146 0048 0500000A 		beq	.L7
 147              		.loc 1 94 3 is_stmt 1 view .LVU52
 148              		.loc 1 94 11 is_stmt 0 view .LVU53
 149 004c 34219FE5 		ldr	r2, .L33+8
 150              	.LVL8:
 151              	.LBB65:
 152              	.LBI65:
 153              		.loc 1 51 7 is_stmt 1 view .LVU54
 154              	.LBB66:
 155              		.loc 1 53 3 view .LVU55
 156              		.loc 1 53 30 is_stmt 0 view .LVU56
 157 0050 34119FE5 		ldr	r1, .L33+12
 158 0054 34019FE5 		ldr	r0, .L33+16
 159              		.loc 1 54 26 view .LVU57
 160 0058 34319FE5 		ldr	r3, .L33+20
 161              		.loc 1 53 30 view .LVU58
 162 005c B60CC1E1 		strh	r0, [r1, #198]	@ movhi
 163              		.loc 1 54 3 is_stmt 1 view .LVU59
 164              		.loc 1 54 26 is_stmt 0 view .LVU60
 165 0060 1C2B83E5 		str	r2, [r3, #2844]
 166              	.LVL9:
 167              	.L7:
 168              		.loc 1 54 26 view .LVU61
 169              	.LBE66:
 170              	.LBE65:
 171              		.loc 1 98 2 is_stmt 1 view .LVU62
 172              		.loc 1 98 8 is_stmt 0 view .LVU63
ARM GAS  C:\Users\samsp\AppData\Local\Temp\ccpUeyA2.s 			page 4


 173 0064 0400A0E1 		mov	r0, r4
 174              		.loc 1 101 1 view .LVU64
 175 0068 7040BDE8 		pop	{r4, r5, r6, lr}
 176              		.cfi_remember_state
 177              		.cfi_restore 14
 178              		.cfi_restore 6
 179              		.cfi_restore 5
 180              		.cfi_restore 4
 181              		.cfi_def_cfa_offset 0
 182              	.LVL10:
 183              		.loc 1 98 8 view .LVU65
 184 006c FEFFFFEA 		b	_ZdlPv
 185              	.LVL11:
 186              	.L28:
 187              		.cfi_restore_state
 188              		.loc 1 71 3 is_stmt 1 view .LVU66
 189              	.LBB67:
 190              	.LBB68:
 191              		.loc 1 53 30 is_stmt 0 view .LVU67
 192 0070 14319FE5 		ldr	r3, .L33+12
 193 0074 1C119FE5 		ldr	r1, .L33+24
 194              	.LBE68:
 195              	.LBE67:
 196              		.loc 1 71 11 view .LVU68
 197 0078 1C219FE5 		ldr	r2, .L33+28
 198              	.LVL12:
 199              	.LBB70:
 200              	.LBI67:
 201              		.loc 1 51 7 is_stmt 1 view .LVU69
 202              	.LBB69:
 203              		.loc 1 53 3 view .LVU70
 204              		.loc 1 53 30 is_stmt 0 view .LVU71
 205 007c BC1BC3E1 		strh	r1, [r3, #188]	@ movhi
 206              	.LVL13:
 207              		.loc 1 54 3 is_stmt 1 view .LVU72
 208              		.loc 1 54 26 is_stmt 0 view .LVU73
 209 0080 133C83E2 		add	r3, r3, #4864
 210 0084 082B83E5 		str	r2, [r3, #2824]
 211              	.LVL14:
 212              		.loc 1 54 26 view .LVU74
 213              	.LBE69:
 214              	.LBE70:
 215              		.loc 1 72 3 is_stmt 1 view .LVU75
 216              		.loc 1 72 82 is_stmt 0 view .LVU76
 217 0088 0110A0E3 		mov	r1, #1
 218 008c 0C019FE5 		ldr	r0, .L33+32
 219              	.LVL15:
 220              		.loc 1 72 82 view .LVU77
 221 0090 FEFFFFEB 		bl	_ZN13SharedFilePtr9ConstructEj
 222              	.LVL16:
 223              		.loc 1 73 6 is_stmt 1 view .LVU78
 224              		.loc 1 73 89 is_stmt 0 view .LVU79
 225 0094 0210A0E3 		mov	r1, #2
 226 0098 04019FE5 		ldr	r0, .L33+36
 227 009c FEFFFFEB 		bl	_ZN13SharedFilePtr9ConstructEj
 228              	.LVL17:
 229              		.loc 1 74 6 is_stmt 1 view .LVU80
ARM GAS  C:\Users\samsp\AppData\Local\Temp\ccpUeyA2.s 			page 5


 230              		.loc 1 74 96 is_stmt 0 view .LVU81
 231 00a0 0010A0E3 		mov	r1, #0
 232 00a4 FC009FE5 		ldr	r0, .L33+40
 233 00a8 FEFFFFEB 		bl	_ZN13SharedFilePtr9ConstructEj
 234              	.LVL18:
 235              	.LBB71:
 236              	.LBB48:
 237              		.loc 1 47 40 view .LVU82
 238 00ac 0532D4E7 		ldrb	r3, [r4, r5, lsl #4]	@ zero_extendqisi2
 239              	.LBE48:
 240              	.LBE71:
 241              		.loc 1 76 2 is_stmt 1 view .LVU83
 242              	.LVL19:
 243              	.LBB72:
 244              		.loc 1 45 7 view .LVU84
 245              	.LBB49:
 246              		.loc 1 47 3 view .LVU85
 247              		.loc 1 47 3 is_stmt 0 view .LVU86
 248              	.LBE49:
 249              	.LBE72:
 250              		.loc 1 41 3 is_stmt 1 view .LVU87
 251              		.loc 1 41 3 view .LVU88
 252              		.loc 1 76 2 is_stmt 0 view .LVU89
 253 00b0 020013E3 		tst	r3, #2
 254 00b4 DCFFFF0A 		beq	.L3
 255              	.L29:
 256              		.loc 1 77 3 is_stmt 1 view .LVU90
 257              	.LBB73:
 258              	.LBB74:
 259              		.loc 1 53 30 is_stmt 0 view .LVU91
 260 00b8 CC309FE5 		ldr	r3, .L33+12
 261 00bc E8109FE5 		ldr	r1, .L33+44
 262              	.LBE74:
 263              	.LBE73:
 264              		.loc 1 77 11 view .LVU92
 265 00c0 E8209FE5 		ldr	r2, .L33+48
 266              	.LVL20:
 267              	.LBB76:
 268              	.LBI73:
 269              		.loc 1 51 7 is_stmt 1 view .LVU93
 270              	.LBB75:
 271              		.loc 1 53 3 view .LVU94
 272              		.loc 1 53 30 is_stmt 0 view .LVU95
 273 00c4 BE1BC3E1 		strh	r1, [r3, #190]	@ movhi
 274              		.loc 1 54 3 is_stmt 1 view .LVU96
 275              		.loc 1 54 26 is_stmt 0 view .LVU97
 276 00c8 133C83E2 		add	r3, r3, #4864
 277 00cc 0C2B83E5 		str	r2, [r3, #2828]
 278              	.LVL21:
 279              		.loc 1 54 26 view .LVU98
 280              	.LBE75:
 281              	.LBE76:
 282              		.loc 1 78 3 is_stmt 1 view .LVU99
 283              		.loc 1 78 55 is_stmt 0 view .LVU100
 284 00d0 0310A0E3 		mov	r1, #3
 285 00d4 D8009FE5 		ldr	r0, .L33+52
 286 00d8 FEFFFFEB 		bl	_ZN13SharedFilePtr9ConstructEj
ARM GAS  C:\Users\samsp\AppData\Local\Temp\ccpUeyA2.s 			page 6


 287              	.LVL22:
 288              	.LBB77:
 289              	.LBB52:
 290              		.loc 1 47 40 view .LVU101
 291 00dc 0532D4E7 		ldrb	r3, [r4, r5, lsl #4]	@ zero_extendqisi2
 292              	.LBE52:
 293              	.LBE77:
 294              		.loc 1 80 2 is_stmt 1 view .LVU102
 295              	.LVL23:
 296              	.LBB78:
 297              		.loc 1 45 7 view .LVU103
 298              	.LBB53:
 299              		.loc 1 47 3 view .LVU104
 300              		.loc 1 47 3 is_stmt 0 view .LVU105
 301              	.LBE53:
 302              	.LBE78:
 303              		.loc 1 41 3 is_stmt 1 view .LVU106
 304              		.loc 1 41 3 view .LVU107
 305              		.loc 1 80 2 is_stmt 0 view .LVU108
 306 00e0 040013E3 		tst	r3, #4
 307 00e4 D2FFFF0A 		beq	.L4
 308              	.L30:
 309              		.loc 1 81 3 is_stmt 1 view .LVU109
 310              	.LBB79:
 311              	.LBB80:
 312              		.loc 1 53 30 is_stmt 0 view .LVU110
 313 00e8 16EEA0E3 		mov	lr, #352
 314              		.loc 1 54 26 view .LVU111
 315 00ec A0309FE5 		ldr	r3, .L33+20
 316              	.LBE80:
 317              	.LBE79:
 318              		.loc 1 81 11 view .LVU112
 319 00f0 C0209FE5 		ldr	r2, .L33+56
 320              	.LVL24:
 321              	.LBB84:
 322              	.LBI79:
 323              		.loc 1 51 7 is_stmt 1 view .LVU113
 324              	.LBB81:
 325              		.loc 1 53 3 view .LVU114
 326              		.loc 1 53 30 is_stmt 0 view .LVU115
 327 00f4 90C09FE5 		ldr	ip, .L33+12
 328              	.LBE81:
 329              	.LBE84:
 330              		.loc 1 82 64 view .LVU116
 331 00f8 0510A0E3 		mov	r1, #5
 332              	.LBB85:
 333              	.LBB82:
 334              		.loc 1 53 30 view .LVU117
 335 00fc B0ECCCE1 		strh	lr, [ip, #192]	@ movhi
 336              		.loc 1 54 3 is_stmt 1 view .LVU118
 337              	.LBE82:
 338              	.LBE85:
 339              		.loc 1 82 64 is_stmt 0 view .LVU119
 340 0100 B4009FE5 		ldr	r0, .L33+60
 341              	.LBB86:
 342              	.LBB83:
 343              		.loc 1 54 26 view .LVU120
ARM GAS  C:\Users\samsp\AppData\Local\Temp\ccpUeyA2.s 			page 7


 344 0104 102B83E5 		str	r2, [r3, #2832]
 345              	.LVL25:
 346              		.loc 1 54 26 view .LVU121
 347              	.LBE83:
 348              	.LBE86:
 349              		.loc 1 82 3 is_stmt 1 view .LVU122
 350              		.loc 1 82 64 is_stmt 0 view .LVU123
 351 0108 FEFFFFEB 		bl	_ZN13SharedFilePtr9ConstructEj
 352              	.LVL26:
 353              	.LBB87:
 354              	.LBB56:
 355              		.loc 1 47 40 view .LVU124
 356 010c 0532D4E7 		ldrb	r3, [r4, r5, lsl #4]	@ zero_extendqisi2
 357              	.LBE56:
 358              	.LBE87:
 359              		.loc 1 84 2 is_stmt 1 view .LVU125
 360              	.LVL27:
 361              	.LBB88:
 362              		.loc 1 45 7 view .LVU126
 363              	.LBB57:
 364              		.loc 1 47 3 view .LVU127
 365              		.loc 1 47 3 is_stmt 0 view .LVU128
 366              	.LBE57:
 367              	.LBE88:
 368              		.loc 1 41 3 is_stmt 1 view .LVU129
 369              		.loc 1 41 3 view .LVU130
 370              		.loc 1 84 2 is_stmt 0 view .LVU131
 371 0110 080013E3 		tst	r3, #8
 372 0114 C8FFFF0A 		beq	.L5
 373              	.L31:
 374              		.loc 1 85 3 is_stmt 1 view .LVU132
 375              	.LBB89:
 376              	.LBB90:
 377              		.loc 1 53 30 is_stmt 0 view .LVU133
 378 0118 6C309FE5 		ldr	r3, .L33+12
 379 011c 9C109FE5 		ldr	r1, .L33+64
 380              	.LBE90:
 381              	.LBE89:
 382              		.loc 1 85 11 view .LVU134
 383 0120 9C209FE5 		ldr	r2, .L33+68
 384              	.LVL28:
 385              	.LBB92:
 386              	.LBI89:
 387              		.loc 1 51 7 is_stmt 1 view .LVU135
 388              	.LBB91:
 389              		.loc 1 53 3 view .LVU136
 390              		.loc 1 53 30 is_stmt 0 view .LVU137
 391 0124 B21CC3E1 		strh	r1, [r3, #194]	@ movhi
 392              		.loc 1 54 3 is_stmt 1 view .LVU138
 393              		.loc 1 54 26 is_stmt 0 view .LVU139
 394 0128 133C83E2 		add	r3, r3, #4864
 395 012c 142B83E5 		str	r2, [r3, #2836]
 396              	.LVL29:
 397              		.loc 1 54 26 view .LVU140
 398              	.LBE91:
 399              	.LBE92:
 400              		.loc 1 86 3 is_stmt 1 view .LVU141
ARM GAS  C:\Users\samsp\AppData\Local\Temp\ccpUeyA2.s 			page 8


 401              		.loc 1 86 44 is_stmt 0 view .LVU142
 402 0130 0610A0E3 		mov	r1, #6
 403 0134 8C009FE5 		ldr	r0, .L33+72
 404 0138 FEFFFFEB 		bl	_ZN13SharedFilePtr9ConstructEj
 405              	.LVL30:
 406              		.loc 1 87 3 is_stmt 1 view .LVU143
 407              		.loc 1 87 48 is_stmt 0 view .LVU144
 408 013c 0710A0E3 		mov	r1, #7
 409 0140 84009FE5 		ldr	r0, .L33+76
 410 0144 FEFFFFEB 		bl	_ZN13SharedFilePtr9ConstructEj
 411              	.LVL31:
 412              	.LBB93:
 413              	.LBB60:
 414              		.loc 1 47 40 view .LVU145
 415 0148 0532D4E7 		ldrb	r3, [r4, r5, lsl #4]	@ zero_extendqisi2
 416              	.LBE60:
 417              	.LBE93:
 418              		.loc 1 89 2 is_stmt 1 view .LVU146
 419              	.LVL32:
 420              	.LBB94:
 421              		.loc 1 45 7 view .LVU147
 422              	.LBB61:
 423              		.loc 1 47 3 view .LVU148
 424              		.loc 1 47 3 is_stmt 0 view .LVU149
 425              	.LBE61:
 426              	.LBE94:
 427              		.loc 1 41 3 is_stmt 1 view .LVU150
 428              		.loc 1 41 3 view .LVU151
 429              		.loc 1 89 2 is_stmt 0 view .LVU152
 430 014c 100013E3 		tst	r3, #16
 431 0150 BBFFFF0A 		beq	.L6
 432              	.L32:
 433              		.loc 1 90 3 is_stmt 1 view .LVU153
 434              	.LBB95:
 435              	.LBB96:
 436              		.loc 1 53 30 is_stmt 0 view .LVU154
 437 0154 30309FE5 		ldr	r3, .L33+12
 438 0158 70109FE5 		ldr	r1, .L33+80
 439              	.LBE96:
 440              	.LBE95:
 441              		.loc 1 90 11 view .LVU155
 442 015c 70209FE5 		ldr	r2, .L33+84
 443              	.LVL33:
 444              	.LBB98:
 445              	.LBI95:
 446              		.loc 1 51 7 is_stmt 1 view .LVU156
 447              	.LBB97:
 448              		.loc 1 53 3 view .LVU157
 449              		.loc 1 53 30 is_stmt 0 view .LVU158
 450 0160 B41CC3E1 		strh	r1, [r3, #196]	@ movhi
 451              		.loc 1 54 3 is_stmt 1 view .LVU159
 452              		.loc 1 54 26 is_stmt 0 view .LVU160
 453 0164 133C83E2 		add	r3, r3, #4864
 454 0168 182B83E5 		str	r2, [r3, #2840]
 455              	.LVL34:
 456              		.loc 1 54 26 view .LVU161
 457              	.LBE97:
ARM GAS  C:\Users\samsp\AppData\Local\Temp\ccpUeyA2.s 			page 9


 458              	.LBE98:
 459              		.loc 1 91 3 is_stmt 1 view .LVU162
 460              		.loc 1 91 53 is_stmt 0 view .LVU163
 461 016c 0810A0E3 		mov	r1, #8
 462 0170 60009FE5 		ldr	r0, .L33+88
 463 0174 FEFFFFEB 		bl	_ZN13SharedFilePtr9ConstructEj
 464              	.LVL35:
 465              	.LBB99:
 466              	.LBB64:
 467              		.loc 1 47 40 view .LVU164
 468 0178 0532D4E7 		ldrb	r3, [r4, r5, lsl #4]	@ zero_extendqisi2
 469              	.LBE64:
 470              	.LBE99:
 471 017c B0FFFFEA 		b	.L6
 472              	.L34:
 473              		.align	2
 474              	.L33:
 475 0180 0C080000 		.word	2060
 476 0184 00000000 		.word	LEVEL_ID
 477 0188 00000000 		.word	_ZN22ObjectLightingModifier9spawnDataE
 478 018c 004D0002 		.word	33574144
 479 0190 63010000 		.word	355
 480 0194 00600002 		.word	33579008
 481 0198 5E010000 		.word	350
 482 019c 00000000 		.word	_ZN23GalaxyShrinkingPlatform9spawnDataE
 483 01a0 00000000 		.word	_ZN23GalaxyShrinkingPlatform9modelFileE
 484 01a4 00000000 		.word	_ZN23GalaxyShrinkingPlatform8clsnFileE
 485 01a8 00000000 		.word	_ZN23GalaxyShrinkingPlatform14frameModelFileE
 486 01ac 5F010000 		.word	351
 487 01b0 00000000 		.word	_ZN10SilverCoin9spawnDataE
 488 01b4 00000000 		.word	_ZN10SilverCoin9modelFileE
 489 01b8 00000000 		.word	_ZN13InvisibleWall9spawnDataE
 490 01bc 00000000 		.word	_ZN13InvisibleWall8clsnFileE
 491 01c0 61010000 		.word	353
 492 01c4 00000000 		.word	_ZN5Berry9spawnDataE
 493 01c8 00000000 		.word	_ZN5Berry9modelFileE
 494 01cc 00000000 		.word	_ZN5Berry8stemFileE
 495 01d0 62010000 		.word	354
 496 01d4 00000000 		.word	_ZN9YoshiRide9spawnDataE
 497 01d8 00000000 		.word	_ZN9YoshiRide10ridingAnimE
 498              		.cfi_endproc
 499              	.LFE1152:
 501              		.align	2
 502              		.global	_Z7cleanupv
 503              		.syntax unified
 504              		.arm
 505              		.fpu softvfp
 507              	_Z7cleanupv:
 508              	.LFB1153:
 509              		.loc 1 105 1 is_stmt 1 view -0
 510              		.cfi_startproc
 511              		@ args = 0, pretend = 0, frame = 0
 512              		@ frame_needed = 0, uses_anonymous_args = 0
 513              		@ link register save eliminated.
 514              		.loc 1 108 1 is_stmt 0 view .LVU166
 515 01dc 1EFF2FE1 		bx	lr
 516              		.cfi_endproc
ARM GAS  C:\Users\samsp\AppData\Local\Temp\ccpUeyA2.s 			page 10


 517              	.LFE1153:
 519              	.Letext0:
 520              		.file 2 "c:\\devkitpro\\devkitarm\\arm-none-eabi\\include\\c++\\10.1.0\\cstdint"
 521              		.file 3 "c:\\devkitpro\\devkitarm\\arm-none-eabi\\include\\c++\\10.1.0\\type_traits"
 522              		.file 4 "c:\\devkitpro\\devkitarm\\arm-none-eabi\\include\\c++\\10.1.0\\debug\\debug.h"
 523              		.file 5 "c:\\devkitpro\\devkitarm\\arm-none-eabi\\include\\c++\\10.1.0\\bits\\std_abs.h"
 524              		.file 6 "c:\\devkitpro\\devkitarm\\arm-none-eabi\\include\\c++\\10.1.0\\cstdlib"
 525              		.file 7 "c:\\devkitpro\\devkitarm\\arm-none-eabi\\include\\c++\\10.1.0\\arm-none-eabi\\bits\\c++co
 526              		.file 8 "c:\\devkitpro\\devkitarm\\arm-none-eabi\\include\\c++\\10.1.0\\bits\\algorithmfwd.h"
 527              		.file 9 "c:\\devkitpro\\devkitarm\\arm-none-eabi\\include\\c++\\10.1.0\\bits\\stl_pair.h"
 528              		.file 10 "c:\\devkitpro\\devkitarm\\arm-none-eabi\\include\\c++\\10.1.0\\bits\\exception_ptr.h"
 529              		.file 11 "c:\\devkitpro\\devkitarm\\arm-none-eabi\\include\\c++\\10.1.0\\bits\\predefined_ops.h"
 530              		.file 12 "c:\\devkitpro\\devkitarm\\arm-none-eabi\\include\\machine\\_default_types.h"
 531              		.file 13 "c:\\devkitpro\\devkitarm\\arm-none-eabi\\include\\sys\\_stdint.h"
 532              		.file 14 "c:\\devkitpro\\devkitarm\\arm-none-eabi\\include\\stdint.h"
 533              		.file 15 "c:\\devkitpro\\devkitarm\\lib\\gcc\\arm-none-eabi\\10.1.0\\include\\stddef.h"
 534              		.file 16 "c:\\devkitpro\\devkitarm\\arm-none-eabi\\include\\stdlib.h"
 535              		.file 17 "C:/devkitPro/libnds/include/nds/ndstypes.h"
 536              		.file 18 "c:\\devkitpro\\devkitarm\\arm-none-eabi\\include\\c++\\10.1.0\\stdlib.h"
 537              		.file 19 "C:/devkitPro/libnds/include/nds/arm9/dynamicArray.h"
 538              		.file 20 "C:/devkitPro/libnds/include/nds/arm9/videoGL.h"
 539              		.file 21 "C:/Users/samsp/Documents/MoreObjectsMod/ASM/source/SM64DS_Common.h"
 540              		.file 22 "C:/Users/samsp/Documents/MoreObjectsMod/ASM/source/Level.h"
 541              		.file 23 "C:/Users/samsp/Documents/MoreObjectsMod/ASM/source/Particle.h"
 542              		.file 24 "C:/Users/samsp/Documents/MoreObjectsMod/ASM/source/Sound.h"
 543              		.file 25 "C:/Users/samsp/Documents/MoreObjectsMod/ASM/source/SM64DS_2.h"
 544              		.file 26 "C:/Users/samsp/Documents/MoreObjectsMod/ASM/source/DeleteFile.h"
 545              		.file 27 "<built-in>"
