ARM GAS  C:\Users\samsp\AppData\Local\Temp\ccfSWdoq.s 			page 1


   1              		.arch armv5te
   2              		.eabi_attribute 23, 1
   3              		.eabi_attribute 24, 1
   4              		.eabi_attribute 25, 1
   5              		.eabi_attribute 26, 1
   6              		.eabi_attribute 30, 2
   7              		.eabi_attribute 34, 0
   8              		.eabi_attribute 18, 4
   9              		.file	"ObjectLightingModifier.cpp"
  10              		.text
  11              	.Ltext0:
  12              		.cfi_sections	.debug_frame
  13              		.align	2
  14              		.global	_ZN22ObjectLightingModifier13InitResourcesEv
  15              		.syntax unified
  16              		.arm
  17              		.fpu softvfp
  19              	_ZN22ObjectLightingModifier13InitResourcesEv:
  20              	.LVL0:
  21              	.LFB1153:
  22              		.file 1 "C:/Users/samsp/Documents/MoreObjectsMod/ASM/source/ObjectLightingModifier.cpp"
  23              		.loc 1 27 1 view -0
  24              		.cfi_startproc
  25              		@ args = 0, pretend = 0, frame = 0
  26              		@ frame_needed = 0, uses_anonymous_args = 0
  27              		@ link register save eliminated.
  28              		.loc 1 28 2 view .LVU1
  29              		.loc 1 27 1 is_stmt 0 view .LVU2
  30 0000 0030A0E1 		mov	r3, r0
  31              		.loc 1 28 35 view .LVU3
  32 0004 081093E5 		ldr	r1, [r3, #8]
  33              		.loc 1 28 100 view .LVU4
  34 0008 FC28D3E1 		ldrsh	r2, [r3, #140]
  35              	.LVL1:
  36              	.LBB14:
  37              	.LBI14:
  38              		.file 2 "C:/Users/samsp/Documents/MoreObjectsMod/ASM/source/Model.h"
  39              		.loc 2 85 14 is_stmt 1 view .LVU5
  40              	.LBB15:
  41              		.loc 2 87 3 view .LVU6
  42              		.loc 2 89 21 is_stmt 0 view .LVU7
  43 000c FF3001E2 		and	r3, r1, #255
  44 0010 A331A0E1 		lsr	r3, r3, #3
  45              	.LBE15:
  46              	.LBE14:
  47              		.loc 1 28 52 view .LVU8
  48 0014 4114A0E1 		asr	r1, r1, #8
  49              	.LVL2:
  50              	.LBB18:
  51              	.LBB16:
  52              		.loc 2 89 26 view .LVU9
  53 0018 013F83E1 		orr	r3, r3, r1, lsl #30
  54              		.loc 2 87 36 view .LVU10
  55 001c 8213A0E1 		lsl	r1, r2, #7
  56              		.loc 2 87 41 view .LVU11
  57 0020 1F1B01E2 		and	r1, r1, #31744
  58              		.loc 2 88 21 view .LVU12
ARM GAS  C:\Users\samsp\AppData\Local\Temp\ccfSWdoq.s 			page 2


  59 0024 2223A0E1 		lsr	r2, r2, #6
  60              	.LVL3:
  61              		.loc 2 87 22 view .LVU13
  62 0028 14C09FE5 		ldr	ip, .L3
  63              		.loc 2 89 26 view .LVU14
  64 002c 013083E1 		orr	r3, r3, r1
  65              		.loc 2 88 26 view .LVU15
  66 0030 3E2E02E2 		and	r2, r2, #992
  67              		.loc 2 89 26 view .LVU16
  68 0034 023083E1 		orr	r3, r3, r2
  69              	.LBE16:
  70              	.LBE18:
  71              		.loc 1 30 1 view .LVU17
  72 0038 0100A0E3 		mov	r0, #1
  73              	.LVL4:
  74              	.LBB19:
  75              	.LBB17:
  76              		.loc 2 87 22 view .LVU18
  77 003c 00308CE5 		str	r3, [ip]
  78              	.LVL5:
  79              		.loc 2 87 22 view .LVU19
  80              	.LBE17:
  81              	.LBE19:
  82              		.loc 1 29 2 is_stmt 1 view .LVU20
  83              		.loc 1 30 1 is_stmt 0 view .LVU21
  84 0040 1EFF2FE1 		bx	lr
  85              	.L4:
  86              		.align	2
  87              	.L3:
  88 0044 00000000 		.word	GXPORT_LIGHT_COLOR
  89              		.cfi_endproc
  90              	.LFE1153:
  92              		.align	2
  93              		.global	_ZN22ObjectLightingModifier16CleanupResourcesEv
  94              		.syntax unified
  95              		.arm
  96              		.fpu softvfp
  98              	_ZN22ObjectLightingModifier16CleanupResourcesEv:
  99              	.LVL6:
 100              	.LFB1154:
 101              		.loc 1 33 1 is_stmt 1 view -0
 102              		.cfi_startproc
 103              		@ args = 0, pretend = 0, frame = 0
 104              		@ frame_needed = 0, uses_anonymous_args = 0
 105              		@ link register save eliminated.
 106              		.loc 1 34 2 view .LVU23
 107              	.LBB20:
 108              	.LBI20:
 109              		.loc 2 85 14 view .LVU24
 110              	.LBB21:
 111              		.loc 2 87 3 view .LVU25
 112              		.loc 2 87 22 is_stmt 0 view .LVU26
 113 0048 0C309FE5 		ldr	r3, .L6
 114 004c 0C209FE5 		ldr	r2, .L6+4
 115              	.LBE21:
 116              	.LBE20:
 117              		.loc 1 36 1 view .LVU27
ARM GAS  C:\Users\samsp\AppData\Local\Temp\ccfSWdoq.s 			page 3


 118 0050 0100A0E3 		mov	r0, #1
 119              	.LVL7:
 120              	.LBB23:
 121              	.LBB22:
 122              		.loc 2 87 22 view .LVU28
 123 0054 002083E5 		str	r2, [r3]
 124              	.LVL8:
 125              		.loc 2 87 22 view .LVU29
 126              	.LBE22:
 127              	.LBE23:
 128              		.loc 1 35 2 is_stmt 1 view .LVU30
 129              		.loc 1 36 1 is_stmt 0 view .LVU31
 130 0058 1EFF2FE1 		bx	lr
 131              	.L7:
 132              		.align	2
 133              	.L6:
 134 005c 00000000 		.word	GXPORT_LIGHT_COLOR
 135 0060 FF7F0000 		.word	32767
 136              		.cfi_endproc
 137              	.LFE1154:
 139              		.align	2
 140              		.global	_ZN22ObjectLightingModifier8BehaviorEv
 141              		.syntax unified
 142              		.arm
 143              		.fpu softvfp
 145              	_ZN22ObjectLightingModifier8BehaviorEv:
 146              	.LVL9:
 147              	.LFB1155:
 148              		.loc 1 39 1 is_stmt 1 view -0
 149              		.cfi_startproc
 150              		@ args = 0, pretend = 0, frame = 0
 151              		@ frame_needed = 0, uses_anonymous_args = 0
 152              		@ link register save eliminated.
 153              		.loc 1 40 2 view .LVU33
 154              		.loc 1 41 1 is_stmt 0 view .LVU34
 155 0064 0100A0E3 		mov	r0, #1
 156              	.LVL10:
 157              		.loc 1 41 1 view .LVU35
 158 0068 1EFF2FE1 		bx	lr
 159              		.cfi_endproc
 160              	.LFE1155:
 162              		.global	_ZN22ObjectLightingModifier6RenderEv
 163              		.set	_ZN22ObjectLightingModifier6RenderEv,_ZN22ObjectLightingModifier8BehaviorEv
 164              		.align	2
 165              		.global	_ZN22ObjectLightingModifier5SpawnEv
 166              		.syntax unified
 167              		.arm
 168              		.fpu softvfp
 170              	_ZN22ObjectLightingModifier5SpawnEv:
 171              	.LFB1149:
 172              		.loc 1 21 1 is_stmt 1 view -0
 173              		.cfi_startproc
 174              		@ args = 0, pretend = 0, frame = 0
 175              		@ frame_needed = 0, uses_anonymous_args = 0
 176              		.loc 1 22 2 view .LVU37
 177              		.loc 1 21 1 is_stmt 0 view .LVU38
 178 006c 10402DE9 		push	{r4, lr}
ARM GAS  C:\Users\samsp\AppData\Local\Temp\ccfSWdoq.s 			page 4


 179              		.cfi_def_cfa_offset 8
 180              		.cfi_offset 4, -8
 181              		.cfi_offset 14, -4
 182              		.loc 1 22 13 view .LVU39
 183 0070 D400A0E3 		mov	r0, #212
 184 0074 FEFFFFEB 		bl	_ZN9ActorBasenwEj
 185              	.LVL11:
 186 0078 0040A0E1 		mov	r4, r0
 187              	.LVL12:
 188              	.LBB24:
 189              	.LBI24:
 190              		.file 3 "C:/Users/samsp/Documents/MoreObjectsMod/ASM/source/ObjectLightingModifier.h"
 191              		.loc 3 6 8 is_stmt 1 view .LVU40
 192              	.LBB25:
 193 007c FEFFFFEB 		bl	_ZN5ActorC2Ev
 194              	.LVL13:
 195              		.loc 3 6 8 is_stmt 0 view .LVU41
 196 0080 08309FE5 		ldr	r3, .L11
 197              	.LBE25:
 198              	.LBE24:
 199              		.loc 1 23 1 view .LVU42
 200 0084 0400A0E1 		mov	r0, r4
 201              	.LBB27:
 202              	.LBB26:
 203              		.loc 3 6 8 view .LVU43
 204 0088 003084E5 		str	r3, [r4]
 205              	.LVL14:
 206              		.loc 3 6 8 view .LVU44
 207              	.LBE26:
 208              	.LBE27:
 209              		.loc 1 23 1 view .LVU45
 210 008c 1080BDE8 		pop	{r4, pc}
 211              	.L12:
 212              		.align	2
 213              	.L11:
 214 0090 08000000 		.word	.LANCHOR0+8
 215              		.cfi_endproc
 216              	.LFE1149:
 218              		.align	2
 219              		.global	_ZN22ObjectLightingModifierD2Ev
 220              		.syntax unified
 221              		.arm
 222              		.fpu softvfp
 224              	_ZN22ObjectLightingModifierD2Ev:
 225              	.LVL15:
 226              	.LFB1158:
 227              		.loc 1 48 1 is_stmt 1 view -0
 228              		.cfi_startproc
 229              		@ args = 0, pretend = 0, frame = 0
 230              		@ frame_needed = 0, uses_anonymous_args = 0
 231              		.loc 1 48 1 is_stmt 0 view .LVU47
 232 0094 10402DE9 		push	{r4, lr}
 233              		.cfi_def_cfa_offset 8
 234              		.cfi_offset 4, -8
 235              		.cfi_offset 14, -4
 236              		.loc 1 48 1 view .LVU48
 237 0098 0040A0E1 		mov	r4, r0
ARM GAS  C:\Users\samsp\AppData\Local\Temp\ccfSWdoq.s 			page 5


 238              	.LBB28:
 239              		.loc 1 48 49 view .LVU49
 240 009c 0C309FE5 		ldr	r3, .L15
 241 00a0 003080E5 		str	r3, [r0]
 242 00a4 FEFFFFEB 		bl	_ZN5ActorD2Ev
 243              	.LVL16:
 244              		.loc 1 48 49 view .LVU50
 245              	.LBE28:
 246              		.loc 1 48 52 view .LVU51
 247 00a8 0400A0E1 		mov	r0, r4
 248 00ac 1080BDE8 		pop	{r4, pc}
 249              	.L16:
 250              		.align	2
 251              	.L15:
 252 00b0 08000000 		.word	.LANCHOR0+8
 253              		.cfi_endproc
 254              	.LFE1158:
 256              		.global	_ZN22ObjectLightingModifierD1Ev
 257              		.set	_ZN22ObjectLightingModifierD1Ev,_ZN22ObjectLightingModifierD2Ev
 258              		.align	2
 259              		.global	_ZN22ObjectLightingModifierD0Ev
 260              		.syntax unified
 261              		.arm
 262              		.fpu softvfp
 264              	_ZN22ObjectLightingModifierD0Ev:
 265              	.LVL17:
 266              	.LFB1160:
 267              		.loc 1 48 1 is_stmt 1 view -0
 268              		.cfi_startproc
 269              		@ args = 0, pretend = 0, frame = 0
 270              		@ frame_needed = 0, uses_anonymous_args = 0
 271              		.loc 1 48 1 is_stmt 0 view .LVU53
 272 00b4 10402DE9 		push	{r4, lr}
 273              		.cfi_def_cfa_offset 8
 274              		.cfi_offset 4, -8
 275              		.cfi_offset 14, -4
 276              		.loc 1 48 1 view .LVU54
 277 00b8 0040A0E1 		mov	r4, r0
 278              	.LVL18:
 279              	.LBB29:
 280              	.LBI29:
 281              		.loc 1 48 1 is_stmt 1 view .LVU55
 282              	.LBB30:
 283              		.loc 1 48 49 is_stmt 0 view .LVU56
 284 00bc 1C309FE5 		ldr	r3, .L19
 285 00c0 003080E5 		str	r3, [r0]
 286 00c4 FEFFFFEB 		bl	_ZN5ActorD2Ev
 287              	.LVL19:
 288              		.loc 1 48 49 view .LVU57
 289              	.LBE30:
 290              	.LBE29:
 291              	.LBB31:
 292              	.LBI31:
 293              		.file 4 "C:/Users/samsp/Documents/MoreObjectsMod/ASM/source/SM64DS_2.h"
 294              		.loc 4 91 14 is_stmt 1 view .LVU58
 295              	.LBB32:
 296              		.loc 4 91 42 view .LVU59
ARM GAS  C:\Users\samsp\AppData\Local\Temp\ccfSWdoq.s 			page 6


 297              		.loc 4 91 60 is_stmt 0 view .LVU60
 298 00c8 14309FE5 		ldr	r3, .L19+4
 299 00cc 0400A0E1 		mov	r0, r4
 300 00d0 AC1E93E5 		ldr	r1, [r3, #3756]
 301 00d4 FEFFFFEB 		bl	FreeHeapAllocation
 302              	.LVL20:
 303              		.loc 4 91 60 view .LVU61
 304              	.LBE32:
 305              	.LBE31:
 306              		.loc 1 48 52 view .LVU62
 307 00d8 0400A0E1 		mov	r0, r4
 308 00dc 1080BDE8 		pop	{r4, pc}
 309              	.L20:
 310              		.align	2
 311              	.L19:
 312 00e0 08000000 		.word	.LANCHOR0+8
 313 00e4 00000A02 		.word	34209792
 314              		.cfi_endproc
 315              	.LFE1160:
 317              		.global	_ZTV22ObjectLightingModifier
 318              		.global	_ZN22ObjectLightingModifier9spawnDataE
 319              		.section	.rodata
 320              		.align	2
 321              		.set	.LANCHOR0,. + 0
 324              	_ZTV22ObjectLightingModifier:
 325 0000 00000000 		.word	0
 326 0004 00000000 		.word	0
 327 0008 00000000 		.word	_ZN22ObjectLightingModifier13InitResourcesEv
 328 000c 00000000 		.word	_ZN5Actor19BeforeInitResourcesEv
 329 0010 00000000 		.word	_ZN5Actor18AfterInitResourcesEj
 330 0014 00000000 		.word	_ZN22ObjectLightingModifier16CleanupResourcesEv
 331 0018 00000000 		.word	_ZN5Actor22BeforeCleanupResourcesEv
 332 001c 00000000 		.word	_ZN5Actor21AfterCleanupResourcesEj
 333 0020 00000000 		.word	_ZN22ObjectLightingModifier8BehaviorEv
 334 0024 00000000 		.word	_ZN5Actor14BeforeBehaviorEv
 335 0028 00000000 		.word	_ZN5Actor13AfterBehaviorEj
 336 002c 00000000 		.word	_ZN22ObjectLightingModifier6RenderEv
 337 0030 00000000 		.word	_ZN5Actor12BeforeRenderEv
 338 0034 00000000 		.word	_ZN5Actor11AfterRenderEj
 339 0038 00000000 		.word	_ZN9ActorBase9Virtual30Ev
 340 003c 00000000 		.word	_ZN9ActorBase9Virtual34Ejj
 341 0040 00000000 		.word	_ZN9ActorBase9Virtual38Ejj
 342 0044 00000000 		.word	_ZN9ActorBase9Virtual3cEv
 343 0048 00000000 		.word	_ZN22ObjectLightingModifierD1Ev
 344 004c 00000000 		.word	_ZN22ObjectLightingModifierD0Ev
 345 0050 00000000 		.word	_ZN5Actor13OnYoshiTryEatEv
 346 0054 00000000 		.word	_ZN5Actor13OnTurnIntoEggER6Player
 347 0058 00000000 		.word	_ZN5Actor9Virtual50Ev
 348 005c 00000000 		.word	_ZN5Actor15OnGroundPoundedERS_
 349 0060 00000000 		.word	_ZN5Actor11OnAttacked1ERS_
 350 0064 00000000 		.word	_ZN5Actor11OnAttacked2ERS_
 351 0068 00000000 		.word	_ZN5Actor8OnKickedERS_
 352 006c 00000000 		.word	_ZN5Actor8OnPushedERS_
 353 0070 00000000 		.word	_ZN5Actor24OnHitByCannonBlastedCharERS_
 354 0074 00000000 		.word	_ZN5Actor15OnHitByMegaCharER6Player
 355 0078 00000000 		.word	_ZN5Actor9Virtual70ERS_
 356 007c 00000000 		.word	_ZN5Actor16OnAimedAtWithEggEv
ARM GAS  C:\Users\samsp\AppData\Local\Temp\ccfSWdoq.s 			page 7


 357 0080 00000000 		.word	_ZN5Actor25OnAimedAtWithEggReturnVecEv
 358              		.data
 359              		.align	2
 362              	_ZN22ObjectLightingModifier9spawnDataE:
 363 0000 00000000 		.word	_ZN22ObjectLightingModifier5SpawnEv
 364 0004 0000     		.short	0
 365 0006 0001     		.short	256
 366 0008 02000000 		.word	2
 367 000c 00400600 		.word	409600
 368 0010 00800C00 		.word	819200
 369 0014 00000001 		.word	16777216
 370 0018 00000001 		.word	16777216
 371              		.text
 372              	.Letext0:
 373              		.file 5 "c:\\devkitpro\\devkitarm\\arm-none-eabi\\include\\c++\\10.1.0\\cstdint"
 374              		.file 6 "c:\\devkitpro\\devkitarm\\arm-none-eabi\\include\\c++\\10.1.0\\type_traits"
 375              		.file 7 "c:\\devkitpro\\devkitarm\\arm-none-eabi\\include\\c++\\10.1.0\\debug\\debug.h"
 376              		.file 8 "c:\\devkitpro\\devkitarm\\arm-none-eabi\\include\\c++\\10.1.0\\bits\\std_abs.h"
 377              		.file 9 "c:\\devkitpro\\devkitarm\\arm-none-eabi\\include\\c++\\10.1.0\\cstdlib"
 378              		.file 10 "c:\\devkitpro\\devkitarm\\arm-none-eabi\\include\\c++\\10.1.0\\arm-none-eabi\\bits\\c++c
 379              		.file 11 "c:\\devkitpro\\devkitarm\\arm-none-eabi\\include\\c++\\10.1.0\\bits\\algorithmfwd.h"
 380              		.file 12 "c:\\devkitpro\\devkitarm\\arm-none-eabi\\include\\c++\\10.1.0\\bits\\stl_pair.h"
 381              		.file 13 "c:\\devkitpro\\devkitarm\\arm-none-eabi\\include\\c++\\10.1.0\\bits\\exception_ptr.h"
 382              		.file 14 "c:\\devkitpro\\devkitarm\\arm-none-eabi\\include\\c++\\10.1.0\\bits\\predefined_ops.h"
 383              		.file 15 "c:\\devkitpro\\devkitarm\\arm-none-eabi\\include\\machine\\_default_types.h"
 384              		.file 16 "c:\\devkitpro\\devkitarm\\arm-none-eabi\\include\\sys\\_stdint.h"
 385              		.file 17 "c:\\devkitpro\\devkitarm\\arm-none-eabi\\include\\stdint.h"
 386              		.file 18 "c:\\devkitpro\\devkitarm\\lib\\gcc\\arm-none-eabi\\10.1.0\\include\\stddef.h"
 387              		.file 19 "c:\\devkitpro\\devkitarm\\arm-none-eabi\\include\\stdlib.h"
 388              		.file 20 "C:/devkitPro/libnds/include/nds/ndstypes.h"
 389              		.file 21 "c:\\devkitpro\\devkitarm\\arm-none-eabi\\include\\c++\\10.1.0\\stdlib.h"
 390              		.file 22 "C:/devkitPro/libnds/include/nds/arm9/dynamicArray.h"
 391              		.file 23 "C:/devkitPro/libnds/include/nds/arm9/videoGL.h"
 392              		.file 24 "C:/Users/samsp/Documents/MoreObjectsMod/ASM/source/SM64DS_Common.h"
 393              		.file 25 "C:/Users/samsp/Documents/MoreObjectsMod/ASM/source/Level.h"
 394              		.file 26 "C:/Users/samsp/Documents/MoreObjectsMod/ASM/source/Particle.h"
 395              		.file 27 "C:/Users/samsp/Documents/MoreObjectsMod/ASM/source/Sound.h"
 396              		.file 28 "<built-in>"
